Archive member included because of file (symbol)

/home/chris/work/ffmpeg/refs/ffmpeg-armv7/lib/libavformat.a(allformats.o)
                              ./obj/local/armeabi/objs/xplayer/xplayer.o (av_register_all)
/home/chris/work/ffmpeg/refs/ffmpeg-armv7/lib/libavformat.a(avio.o)
                              /home/chris/work/ffmpeg/refs/ffmpeg-armv7/lib/libavformat.a(allformats.o) (ffurl_register_protocol)
/home/chris/work/ffmpeg/refs/ffmpeg-armv7/lib/libavformat.a(file.o)
                              /home/chris/work/ffmpeg/refs/ffmpeg-armv7/lib/libavformat.a(allformats.o) (ff_file_protocol)
/home/chris/work/ffmpeg/refs/ffmpeg-armv7/lib/libavformat.a(flvdec.o)
                              /home/chris/work/ffmpeg/refs/ffmpeg-armv7/lib/libavformat.a(allformats.o) (ff_flv_demuxer)
/home/chris/work/ffmpeg/refs/ffmpeg-armv7/lib/libavformat.a(hls.o)
                              /home/chris/work/ffmpeg/refs/ffmpeg-armv7/lib/libavformat.a(allformats.o) (ff_hls_demuxer)
/home/chris/work/ffmpeg/refs/ffmpeg-armv7/lib/libavformat.a(hlsproto.o)
                              /home/chris/work/ffmpeg/refs/ffmpeg-armv7/lib/libavformat.a(allformats.o) (ff_hls_protocol)
/home/chris/work/ffmpeg/refs/ffmpeg-armv7/lib/libavformat.a(http.o)
                              /home/chris/work/ffmpeg/refs/ffmpeg-armv7/lib/libavformat.a(allformats.o) (ff_http_protocol)
/home/chris/work/ffmpeg/refs/ffmpeg-armv7/lib/libavformat.a(httpauth.o)
                              /home/chris/work/ffmpeg/refs/ffmpeg-armv7/lib/libavformat.a(http.o) (ff_http_auth_handle_header)
/home/chris/work/ffmpeg/refs/ffmpeg-armv7/lib/libavformat.a(mov.o)
                              /home/chris/work/ffmpeg/refs/ffmpeg-armv7/lib/libavformat.a(allformats.o) (ff_mov_demuxer)
/home/chris/work/ffmpeg/refs/ffmpeg-armv7/lib/libavformat.a(mov_chan.o)
                              /home/chris/work/ffmpeg/refs/ffmpeg-armv7/lib/libavformat.a(mov.o) (ff_mov_read_chan)
/home/chris/work/ffmpeg/refs/ffmpeg-armv7/lib/libavformat.a(mpeg.o)
                              /home/chris/work/ffmpeg/refs/ffmpeg-armv7/lib/libavformat.a(allformats.o) (ff_mpegps_demuxer)
/home/chris/work/ffmpeg/refs/ffmpeg-armv7/lib/libavformat.a(mpegts.o)
                              /home/chris/work/ffmpeg/refs/ffmpeg-armv7/lib/libavformat.a(allformats.o) (ff_mpegts_demuxer)
/home/chris/work/ffmpeg/refs/ffmpeg-armv7/lib/libavformat.a(mpegvideodec.o)
                              /home/chris/work/ffmpeg/refs/ffmpeg-armv7/lib/libavformat.a(allformats.o) (ff_mpegvideo_demuxer)
/home/chris/work/ffmpeg/refs/ffmpeg-armv7/lib/libavformat.a(network.o)
                              /home/chris/work/ffmpeg/refs/ffmpeg-armv7/lib/libavformat.a(avio.o) (ff_network_init)
/home/chris/work/ffmpeg/refs/ffmpeg-armv7/lib/libavformat.a(options.o)
                              ./obj/local/armeabi/objs/xplayer/xplayer.o (avformat_alloc_context)
/home/chris/work/ffmpeg/refs/ffmpeg-armv7/lib/libavformat.a(rawdec.o)
                              /home/chris/work/ffmpeg/refs/ffmpeg-armv7/lib/libavformat.a(mpegvideodec.o) (ff_raw_read_partial_packet)
/home/chris/work/ffmpeg/refs/ffmpeg-armv7/lib/libavformat.a(riff.o)
                              /home/chris/work/ffmpeg/refs/ffmpeg-armv7/lib/libavformat.a(mov.o) (ff_codec_wav_tags)
/home/chris/work/ffmpeg/refs/ffmpeg-armv7/lib/libavformat.a(tcp.o)
                              /home/chris/work/ffmpeg/refs/ffmpeg-armv7/lib/libavformat.a(allformats.o) (ff_tcp_protocol)
/home/chris/work/ffmpeg/refs/ffmpeg-armv7/lib/libavformat.a(urldecode.o)
                              /home/chris/work/ffmpeg/refs/ffmpeg-armv7/lib/libavformat.a(httpauth.o) (ff_urldecode)
/home/chris/work/ffmpeg/refs/ffmpeg-armv7/lib/libavformat.a(utils.o)
                              /home/chris/work/ffmpeg/refs/ffmpeg-armv7/lib/libavformat.a(options.o) (av_iformat_next)
/home/chris/work/ffmpeg/refs/ffmpeg-armv7/lib/libavformat.a(aviobuf.o)
                              /home/chris/work/ffmpeg/refs/ffmpeg-armv7/lib/libavformat.a(hls.o) (ffio_init_context)
/home/chris/work/ffmpeg/refs/ffmpeg-armv7/lib/libavformat.a(id3v1.o)
                              /home/chris/work/ffmpeg/refs/ffmpeg-armv7/lib/libavformat.a(mov.o) (ff_id3v1_genre_str)
/home/chris/work/ffmpeg/refs/ffmpeg-armv7/lib/libavformat.a(id3v2.o)
                              /home/chris/work/ffmpeg/refs/ffmpeg-armv7/lib/libavformat.a(utils.o) (ff_id3v2_match)
/home/chris/work/ffmpeg/refs/ffmpeg-armv7/lib/libavformat.a(isom.o)
                              /home/chris/work/ffmpeg/refs/ffmpeg-armv7/lib/libavformat.a(mov.o) (ff_mov_lang_to_iso639)
/home/chris/work/ffmpeg/refs/ffmpeg-armv7/lib/libavformat.a(metadata.o)
                              /home/chris/work/ffmpeg/refs/ffmpeg-armv7/lib/libavformat.a(id3v2.o) (ff_metadata_conv)
/home/chris/work/ffmpeg/refs/ffmpeg-armv7/lib/libavformat.a(mux.o)
                              /home/chris/work/ffmpeg/refs/ffmpeg-armv7/lib/libavformat.a(utils.o) (av_write_frame)
/home/chris/work/ffmpeg/refs/ffmpeg-armv7/lib/libavformat.a(os_support.o)
                              /home/chris/work/ffmpeg/refs/ffmpeg-armv7/lib/libavformat.a(tcp.o) (ff_socket_nonblock)
/home/chris/work/ffmpeg/refs/ffmpeg-armv7/lib/libavcodec.a(ac3tab.o)
                              /home/chris/work/ffmpeg/refs/ffmpeg-armv7/lib/libavformat.a(mov.o) (avpriv_ac3_channel_layout_tab)
/home/chris/work/ffmpeg/refs/ffmpeg-armv7/lib/libavcodec.a(allcodecs.o)
                              /home/chris/work/ffmpeg/refs/ffmpeg-armv7/lib/libavformat.a(allformats.o) (avcodec_register_all)
/home/chris/work/ffmpeg/refs/ffmpeg-armv7/lib/libavcodec.a(avpacket.o)
                              /home/chris/work/ffmpeg/refs/ffmpeg-armv7/lib/libavformat.a(mpegts.o) (av_destruct_packet)
/home/chris/work/ffmpeg/refs/ffmpeg-armv7/lib/libavcodec.a(avpicture.o)
                              ./obj/local/armeabi/objs/xplayer/decode_video.o (avpicture_fill)
/home/chris/work/ffmpeg/refs/ffmpeg-armv7/lib/libavcodec.a(bitstream_filter.o)
                              /home/chris/work/ffmpeg/refs/ffmpeg-armv7/lib/libavcodec.a(allcodecs.o) (av_register_bitstream_filter)
/home/chris/work/ffmpeg/refs/ffmpeg-armv7/lib/libavcodec.a(chomp_bsf.o)
                              /home/chris/work/ffmpeg/refs/ffmpeg-armv7/lib/libavcodec.a(allcodecs.o) (ff_chomp_bsf)
/home/chris/work/ffmpeg/refs/ffmpeg-armv7/lib/libavcodec.a(codec_desc.o)
                              /home/chris/work/ffmpeg/refs/ffmpeg-armv7/lib/libavformat.a(utils.o) (avcodec_descriptor_get)
/home/chris/work/ffmpeg/refs/ffmpeg-armv7/lib/libavcodec.a(dump_extradata_bsf.o)
                              /home/chris/work/ffmpeg/refs/ffmpeg-armv7/lib/libavcodec.a(allcodecs.o) (ff_dump_extradata_bsf)
/home/chris/work/ffmpeg/refs/ffmpeg-armv7/lib/libavcodec.a(h263_parser.o)
                              /home/chris/work/ffmpeg/refs/ffmpeg-armv7/lib/libavcodec.a(allcodecs.o) (ff_h263_parser)
/home/chris/work/ffmpeg/refs/ffmpeg-armv7/lib/libavcodec.a(h263dec.o)
                              /home/chris/work/ffmpeg/refs/ffmpeg-armv7/lib/libavcodec.a(allcodecs.o) (ff_h263_decoder)
/home/chris/work/ffmpeg/refs/ffmpeg-armv7/lib/libavcodec.a(h264.o)
                              /home/chris/work/ffmpeg/refs/ffmpeg-armv7/lib/libavformat.a(utils.o) (avpriv_h264_has_num_reorder_frames)
/home/chris/work/ffmpeg/refs/ffmpeg-armv7/lib/libavcodec.a(h264_cabac.o)
                              /home/chris/work/ffmpeg/refs/ffmpeg-armv7/lib/libavcodec.a(h264.o) (ff_h264_init_cabac_states)
/home/chris/work/ffmpeg/refs/ffmpeg-armv7/lib/libavcodec.a(h264_cavlc.o)
                              /home/chris/work/ffmpeg/refs/ffmpeg-armv7/lib/libavcodec.a(h264.o) (ff_h264_decode_init_vlc)
/home/chris/work/ffmpeg/refs/ffmpeg-armv7/lib/libavcodec.a(h264_direct.o)
                              /home/chris/work/ffmpeg/refs/ffmpeg-armv7/lib/libavcodec.a(h264.o) (ff_h264_direct_dist_scale_factor)
/home/chris/work/ffmpeg/refs/ffmpeg-armv7/lib/libavcodec.a(h264_loopfilter.o)
                              /home/chris/work/ffmpeg/refs/ffmpeg-armv7/lib/libavcodec.a(h264.o) (ff_h264_filter_mb)
/home/chris/work/ffmpeg/refs/ffmpeg-armv7/lib/libavcodec.a(h264_mp4toannexb_bsf.o)
                              /home/chris/work/ffmpeg/refs/ffmpeg-armv7/lib/libavcodec.a(allcodecs.o) (ff_h264_mp4toannexb_bsf)
/home/chris/work/ffmpeg/refs/ffmpeg-armv7/lib/libavcodec.a(h264_parser.o)
                              /home/chris/work/ffmpeg/refs/ffmpeg-armv7/lib/libavcodec.a(allcodecs.o) (ff_h264_parser)
/home/chris/work/ffmpeg/refs/ffmpeg-armv7/lib/libavcodec.a(h264_ps.o)
                              /home/chris/work/ffmpeg/refs/ffmpeg-armv7/lib/libavcodec.a(h264.o) (ff_h264_decode_seq_parameter_set)
/home/chris/work/ffmpeg/refs/ffmpeg-armv7/lib/libavcodec.a(h264_refs.o)
                              /home/chris/work/ffmpeg/refs/ffmpeg-armv7/lib/libavcodec.a(h264.o) (ff_h264_fill_default_ref_list)
/home/chris/work/ffmpeg/refs/ffmpeg-armv7/lib/libavcodec.a(h264_sei.o)
                              /home/chris/work/ffmpeg/refs/ffmpeg-armv7/lib/libavcodec.a(h264.o) (ff_h264_reset_sei)
/home/chris/work/ffmpeg/refs/ffmpeg-armv7/lib/libavcodec.a(h264chroma.o)
                              /home/chris/work/ffmpeg/refs/ffmpeg-armv7/lib/libavcodec.a(h264.o) (ff_h264chroma_init)
/home/chris/work/ffmpeg/refs/ffmpeg-armv7/lib/libavcodec.a(h264dsp.o)
                              /home/chris/work/ffmpeg/refs/ffmpeg-armv7/lib/libavcodec.a(h264.o) (ff_h264dsp_init)
/home/chris/work/ffmpeg/refs/ffmpeg-armv7/lib/libavcodec.a(h264idct.o)
                              /home/chris/work/ffmpeg/refs/ffmpeg-armv7/lib/libavcodec.a(h264dsp.o) (ff_h264_idct_add_8_c)
/home/chris/work/ffmpeg/refs/ffmpeg-armv7/lib/libavcodec.a(h264pred.o)
                              /home/chris/work/ffmpeg/refs/ffmpeg-armv7/lib/libavcodec.a(h264.o) (ff_h264_pred_init)
/home/chris/work/ffmpeg/refs/ffmpeg-armv7/lib/libavcodec.a(h264qpel.o)
                              /home/chris/work/ffmpeg/refs/ffmpeg-armv7/lib/libavcodec.a(h264.o) (ff_h264qpel_init)
/home/chris/work/ffmpeg/refs/ffmpeg-armv7/lib/libavcodec.a(imx_dump_header_bsf.o)
                              /home/chris/work/ffmpeg/refs/ffmpeg-armv7/lib/libavcodec.a(allcodecs.o) (ff_imx_dump_header_bsf)
/home/chris/work/ffmpeg/refs/ffmpeg-armv7/lib/libavcodec.a(ituh263dec.o)
                              /home/chris/work/ffmpeg/refs/ffmpeg-armv7/lib/libavcodec.a(h263dec.o) (ff_h263_decode_init_vlc)
/home/chris/work/ffmpeg/refs/ffmpeg-armv7/lib/libavcodec.a(mathtables.o)
                              /home/chris/work/ffmpeg/refs/ffmpeg-armv7/lib/libavcodec.a(h264.o) (ff_zigzag_direct)
/home/chris/work/ffmpeg/refs/ffmpeg-armv7/lib/libavcodec.a(mjpeg2jpeg_bsf.o)
                              /home/chris/work/ffmpeg/refs/ffmpeg-armv7/lib/libavcodec.a(allcodecs.o) (ff_mjpeg2jpeg_bsf)
/home/chris/work/ffmpeg/refs/ffmpeg-armv7/lib/libavcodec.a(mjpega_dump_header_bsf.o)
                              /home/chris/work/ffmpeg/refs/ffmpeg-armv7/lib/libavcodec.a(allcodecs.o) (ff_mjpega_dump_header_bsf)
/home/chris/work/ffmpeg/refs/ffmpeg-armv7/lib/libavcodec.a(movsub_bsf.o)
                              /home/chris/work/ffmpeg/refs/ffmpeg-armv7/lib/libavcodec.a(allcodecs.o) (ff_mov2textsub_bsf)
/home/chris/work/ffmpeg/refs/ffmpeg-armv7/lib/libavcodec.a(mp3_header_compress_bsf.o)
                              /home/chris/work/ffmpeg/refs/ffmpeg-armv7/lib/libavcodec.a(allcodecs.o) (ff_mp3_header_compress_bsf)
/home/chris/work/ffmpeg/refs/ffmpeg-armv7/lib/libavcodec.a(mp3_header_decompress_bsf.o)
                              /home/chris/work/ffmpeg/refs/ffmpeg-armv7/lib/libavcodec.a(allcodecs.o) (ff_mp3_header_decompress_bsf)
/home/chris/work/ffmpeg/refs/ffmpeg-armv7/lib/libavcodec.a(mpeg12.o)
                              /home/chris/work/ffmpeg/refs/ffmpeg-armv7/lib/libavcodec.a(allcodecs.o) (ff_mpeg2video_decoder)
/home/chris/work/ffmpeg/refs/ffmpeg-armv7/lib/libavcodec.a(mpeg12data.o)
                              /home/chris/work/ffmpeg/refs/ffmpeg-armv7/lib/libavcodec.a(mpeg12.o) (ff_mpeg2_aspect)
/home/chris/work/ffmpeg/refs/ffmpeg-armv7/lib/libavcodec.a(mpeg4audio.o)
                              /home/chris/work/ffmpeg/refs/ffmpeg-armv7/lib/libavformat.a(isom.o) (avpriv_mpeg4audio_get_config)
/home/chris/work/ffmpeg/refs/ffmpeg-armv7/lib/libavcodec.a(mpeg4video.o)
                              /home/chris/work/ffmpeg/refs/ffmpeg-armv7/lib/libavcodec.a(ituh263dec.o) (ff_mpeg4_get_video_packet_prefix_length)
/home/chris/work/ffmpeg/refs/ffmpeg-armv7/lib/libavcodec.a(mpeg4video_parser.o)
                              /home/chris/work/ffmpeg/refs/ffmpeg-armv7/lib/libavcodec.a(h263dec.o) (ff_mpeg4_find_frame_end)
/home/chris/work/ffmpeg/refs/ffmpeg-armv7/lib/libavcodec.a(mpeg4videodec.o)
                              /home/chris/work/ffmpeg/refs/ffmpeg-armv7/lib/libavcodec.a(ituh263dec.o) (ff_mpeg4_decode_video_packet_header)
/home/chris/work/ffmpeg/refs/ffmpeg-armv7/lib/libavcodec.a(mpegaudiodata.o)
                              /home/chris/work/ffmpeg/refs/ffmpeg-armv7/lib/libavformat.a(isom.o) (avpriv_mpa_freq_tab)
/home/chris/work/ffmpeg/refs/ffmpeg-armv7/lib/libavcodec.a(mpegaudiodec.o)
                              /home/chris/work/ffmpeg/refs/ffmpeg-armv7/lib/libavcodec.a(allcodecs.o) (ff_mp2_decoder)
/home/chris/work/ffmpeg/refs/ffmpeg-armv7/lib/libavcodec.a(mpegaudiodecheader.o)
                              /home/chris/work/ffmpeg/refs/ffmpeg-armv7/lib/libavcodec.a(mpegaudiodec.o) (avpriv_mpegaudio_decode_header)
/home/chris/work/ffmpeg/refs/ffmpeg-armv7/lib/libavcodec.a(mpegaudiodsp.o)
                              /home/chris/work/ffmpeg/refs/ffmpeg-armv7/lib/libavcodec.a(mpegaudiodec.o) (ff_mpadsp_init)
/home/chris/work/ffmpeg/refs/ffmpeg-armv7/lib/libavcodec.a(mpegaudiodsp_fixed.o)
                              /home/chris/work/ffmpeg/refs/ffmpeg-armv7/lib/libavcodec.a(mpegaudiodsp.o) (ff_mpadsp_apply_window_fixed)
/home/chris/work/ffmpeg/refs/ffmpeg-armv7/lib/libavcodec.a(mpegaudiodsp_float.o)
                              /home/chris/work/ffmpeg/refs/ffmpeg-armv7/lib/libavcodec.a(mpegaudiodsp.o) (ff_mpadsp_apply_window_float)
/home/chris/work/ffmpeg/refs/ffmpeg-armv7/lib/libavcodec.a(mpegvideo.o)
                              /home/chris/work/ffmpeg/refs/ffmpeg-armv7/lib/libavcodec.a(h264_parser.o) (avpriv_mpv_find_start_code)
/home/chris/work/ffmpeg/refs/ffmpeg-armv7/lib/libavcodec.a(mpegvideo_motion.o)
                              /home/chris/work/ffmpeg/refs/ffmpeg-armv7/lib/libavcodec.a(mpegvideo.o) (ff_MPV_motion)
/home/chris/work/ffmpeg/refs/ffmpeg-armv7/lib/libavcodec.a(noise_bsf.o)
                              /home/chris/work/ffmpeg/refs/ffmpeg-armv7/lib/libavcodec.a(allcodecs.o) (ff_noise_bsf)
/home/chris/work/ffmpeg/refs/ffmpeg-armv7/lib/libavcodec.a(options.o)
                              /home/chris/work/ffmpeg/refs/ffmpeg-armv7/lib/libavformat.a(utils.o) (avcodec_alloc_context3)
/home/chris/work/ffmpeg/refs/ffmpeg-armv7/lib/libavcodec.a(parser.o)
                              /home/chris/work/ffmpeg/refs/ffmpeg-armv7/lib/libavcodec.a(allcodecs.o) (av_register_codec_parser)
/home/chris/work/ffmpeg/refs/ffmpeg-armv7/lib/libavcodec.a(raw.o)
                              /home/chris/work/ffmpeg/refs/ffmpeg-armv7/lib/libavformat.a(utils.o) (avcodec_pix_fmt_to_codec_tag)
/home/chris/work/ffmpeg/refs/ffmpeg-armv7/lib/libavcodec.a(rawdec.o)
                              /home/chris/work/ffmpeg/refs/ffmpeg-armv7/lib/libavformat.a(utils.o) (avpriv_find_pix_fmt)
/home/chris/work/ffmpeg/refs/ffmpeg-armv7/lib/libavcodec.a(remove_extradata_bsf.o)
                              /home/chris/work/ffmpeg/refs/ffmpeg-armv7/lib/libavcodec.a(allcodecs.o) (ff_remove_extradata_bsf)
/home/chris/work/ffmpeg/refs/ffmpeg-armv7/lib/libavcodec.a(utils.o)
                              /home/chris/work/ffmpeg/refs/ffmpeg-armv7/lib/libavcodec.a(mpegvideo.o) (avcodec_default_release_buffer)
/home/chris/work/ffmpeg/refs/ffmpeg-armv7/lib/libavcodec.a(videodsp.o)
                              /home/chris/work/ffmpeg/refs/ffmpeg-armv7/lib/libavcodec.a(h264.o) (ff_videodsp_init)
/home/chris/work/ffmpeg/refs/ffmpeg-armv7/lib/libavcodec.a(aac_adtstoasc_bsf.o)
                              /home/chris/work/ffmpeg/refs/ffmpeg-armv7/lib/libavcodec.a(allcodecs.o) (ff_aac_adtstoasc_bsf)
/home/chris/work/ffmpeg/refs/ffmpeg-armv7/lib/libavcodec.a(aac_parser.o)
                              /home/chris/work/ffmpeg/refs/ffmpeg-armv7/lib/libavcodec.a(allcodecs.o) (ff_aac_parser)
/home/chris/work/ffmpeg/refs/ffmpeg-armv7/lib/libavcodec.a(aacadtsdec.o)
                              /home/chris/work/ffmpeg/refs/ffmpeg-armv7/lib/libavcodec.a(aac_adtstoasc_bsf.o) (avpriv_aac_parse_header)
/home/chris/work/ffmpeg/refs/ffmpeg-armv7/lib/libavcodec.a(aacdec.o)
                              /home/chris/work/ffmpeg/refs/ffmpeg-armv7/lib/libavcodec.a(allcodecs.o) (ff_aac_decoder)
/home/chris/work/ffmpeg/refs/ffmpeg-armv7/lib/libavcodec.a(aacsbr.o)
                              /home/chris/work/ffmpeg/refs/ffmpeg-armv7/lib/libavcodec.a(aacdec.o) (ff_aac_sbr_init)
/home/chris/work/ffmpeg/refs/ffmpeg-armv7/lib/libavcodec.a(aactab.o)
                              /home/chris/work/ffmpeg/refs/ffmpeg-armv7/lib/libavcodec.a(aacdec.o) (ff_aac_tableinit)
/home/chris/work/ffmpeg/refs/ffmpeg-armv7/lib/libavcodec.a(ac3_parser.o)
                              /home/chris/work/ffmpeg/refs/ffmpeg-armv7/lib/libavcodec.a(allcodecs.o) (ff_ac3_parser)
/home/chris/work/ffmpeg/refs/ffmpeg-armv7/lib/libavcodec.a(ac3dec.o)
                              /home/chris/work/ffmpeg/refs/ffmpeg-armv7/lib/libavcodec.a(allcodecs.o) (ff_ac3_decoder)
/home/chris/work/ffmpeg/refs/ffmpeg-armv7/lib/libavcodec.a(ac3dec_data.o)
                              /home/chris/work/ffmpeg/refs/ffmpeg-armv7/lib/libavcodec.a(ac3dec.o) (ff_eac3_default_spx_band_struct)
/home/chris/work/ffmpeg/refs/ffmpeg-armv7/lib/libavcodec.a(ac3dsp.o)
                              /home/chris/work/ffmpeg/refs/ffmpeg-armv7/lib/libavcodec.a(ac3dec.o) (ff_ac3dsp_init)
/home/chris/work/ffmpeg/refs/ffmpeg-armv7/lib/libavcodec.a(ac3dsp_init_arm.o)
                              /home/chris/work/ffmpeg/refs/ffmpeg-armv7/lib/libavcodec.a(ac3dsp.o) (ff_ac3dsp_init_arm)
/home/chris/work/ffmpeg/refs/ffmpeg-armv7/lib/libavcodec.a(ac3dsp_neon.o)
                              /home/chris/work/ffmpeg/refs/ffmpeg-armv7/lib/libavcodec.a(ac3dsp_init_arm.o) (ff_ac3_max_msb_abs_int16_neon)
/home/chris/work/ffmpeg/refs/ffmpeg-armv7/lib/libavcodec.a(h264chroma_init_arm.o)
                              /home/chris/work/ffmpeg/refs/ffmpeg-armv7/lib/libavcodec.a(h264chroma.o) (ff_h264chroma_init_arm)
/home/chris/work/ffmpeg/refs/ffmpeg-armv7/lib/libavcodec.a(h264cmc_neon.o)
                              /home/chris/work/ffmpeg/refs/ffmpeg-armv7/lib/libavcodec.a(h264chroma_init_arm.o) (ff_put_h264_chroma_mc8_neon)
/home/chris/work/ffmpeg/refs/ffmpeg-armv7/lib/libavcodec.a(h264dsp_init_arm.o)
                              /home/chris/work/ffmpeg/refs/ffmpeg-armv7/lib/libavcodec.a(h264dsp.o) (ff_h264dsp_init_arm)
/home/chris/work/ffmpeg/refs/ffmpeg-armv7/lib/libavcodec.a(h264dsp_neon.o)
                              /home/chris/work/ffmpeg/refs/ffmpeg-armv7/lib/libavcodec.a(h264dsp_init_arm.o) (ff_h264_v_loop_filter_luma_neon)
/home/chris/work/ffmpeg/refs/ffmpeg-armv7/lib/libavcodec.a(h264idct_neon.o)
                              /home/chris/work/ffmpeg/refs/ffmpeg-armv7/lib/libavcodec.a(h264dsp_init_arm.o) (ff_h264_idct_add_neon)
/home/chris/work/ffmpeg/refs/ffmpeg-armv7/lib/libavcodec.a(h264pred_init_arm.o)
                              /home/chris/work/ffmpeg/refs/ffmpeg-armv7/lib/libavcodec.a(h264pred.o) (ff_h264_pred_init_arm)
/home/chris/work/ffmpeg/refs/ffmpeg-armv7/lib/libavcodec.a(h264pred_neon.o)
                              /home/chris/work/ffmpeg/refs/ffmpeg-armv7/lib/libavcodec.a(h264pred_init_arm.o) (ff_pred16x16_128_dc_neon)
/home/chris/work/ffmpeg/refs/ffmpeg-armv7/lib/libavcodec.a(h264qpel_init_arm.o)
                              /home/chris/work/ffmpeg/refs/ffmpeg-armv7/lib/libavcodec.a(h264qpel.o) (ff_h264qpel_init_arm)
/home/chris/work/ffmpeg/refs/ffmpeg-armv7/lib/libavcodec.a(h264qpel_neon.o)
                              /home/chris/work/ffmpeg/refs/ffmpeg-armv7/lib/libavcodec.a(h264qpel_init_arm.o) (ff_put_h264_qpel8_mc10_neon)
/home/chris/work/ffmpeg/refs/ffmpeg-armv7/lib/libavcodec.a(mpegaudiodsp_init_arm.o)
                              /home/chris/work/ffmpeg/refs/ffmpeg-armv7/lib/libavcodec.a(mpegaudiodsp.o) (ff_mpadsp_init_arm)
/home/chris/work/ffmpeg/refs/ffmpeg-armv7/lib/libavcodec.a(mpegvideo_arm.o)
                              /home/chris/work/ffmpeg/refs/ffmpeg-armv7/lib/libavcodec.a(mpegvideo.o) (ff_MPV_common_init_arm)
/home/chris/work/ffmpeg/refs/ffmpeg-armv7/lib/libavcodec.a(mpegvideo_armv5te.o)
                              /home/chris/work/ffmpeg/refs/ffmpeg-armv7/lib/libavcodec.a(mpegvideo_arm.o) (ff_MPV_common_init_armv5te)
/home/chris/work/ffmpeg/refs/ffmpeg-armv7/lib/libavcodec.a(mpegvideo_armv5te_s.o)
                              /home/chris/work/ffmpeg/refs/ffmpeg-armv7/lib/libavcodec.a(mpegvideo_armv5te.o) (ff_dct_unquantize_h263_armv5te)
/home/chris/work/ffmpeg/refs/ffmpeg-armv7/lib/libavcodec.a(mpegvideo_neon.o)
                              /home/chris/work/ffmpeg/refs/ffmpeg-armv7/lib/libavcodec.a(mpegvideo_arm.o) (ff_dct_unquantize_h263_inter_neon)
/home/chris/work/ffmpeg/refs/ffmpeg-armv7/lib/libavcodec.a(videodsp_init_arm.o)
                              /home/chris/work/ffmpeg/refs/ffmpeg-armv7/lib/libavcodec.a(videodsp.o) (ff_videodsp_init_arm)
/home/chris/work/ffmpeg/refs/ffmpeg-armv7/lib/libavcodec.a(videodsp_init_armv5te.o)
                              /home/chris/work/ffmpeg/refs/ffmpeg-armv7/lib/libavcodec.a(videodsp_init_arm.o) (ff_videodsp_init_armv5te)
/home/chris/work/ffmpeg/refs/ffmpeg-armv7/lib/libavcodec.a(bitstream.o)
                              /home/chris/work/ffmpeg/refs/ffmpeg-armv7/lib/libavcodec.a(mpeg4audio.o) (avpriv_align_put_bits)
/home/chris/work/ffmpeg/refs/ffmpeg-armv7/lib/libavcodec.a(cabac.o)
                              /home/chris/work/ffmpeg/refs/ffmpeg-armv7/lib/libavcodec.a(h264.o) (ff_init_cabac_decoder)
/home/chris/work/ffmpeg/refs/ffmpeg-armv7/lib/libavcodec.a(dct.o)
                              /home/chris/work/ffmpeg/refs/ffmpeg-armv7/lib/libavcodec.a(mpegaudiodsp.o) (ff_dct_init)
/home/chris/work/ffmpeg/refs/ffmpeg-armv7/lib/libavcodec.a(dct32_fixed.o)
                              /home/chris/work/ffmpeg/refs/ffmpeg-armv7/lib/libavcodec.a(mpegaudiodsp.o) (ff_dct32_fixed)
/home/chris/work/ffmpeg/refs/ffmpeg-armv7/lib/libavcodec.a(dct32_float.o)
                              /home/chris/work/ffmpeg/refs/ffmpeg-armv7/lib/libavcodec.a(dct.o) (ff_dct32_float)
/home/chris/work/ffmpeg/refs/ffmpeg-armv7/lib/libavcodec.a(dsputil.o)
                              /home/chris/work/ffmpeg/refs/ffmpeg-armv7/lib/libavcodec.a(h264qpel.o) (ff_put_pixels8x8_8_c)
/home/chris/work/ffmpeg/refs/ffmpeg-armv7/lib/libavcodec.a(error_resilience.o)
                              /home/chris/work/ffmpeg/refs/ffmpeg-armv7/lib/libavcodec.a(h264.o) (ff_er_frame_start)
/home/chris/work/ffmpeg/refs/ffmpeg-armv7/lib/libavcodec.a(faanidct.o)
                              /home/chris/work/ffmpeg/refs/ffmpeg-armv7/lib/libavcodec.a(dsputil.o) (ff_faanidct)
/home/chris/work/ffmpeg/refs/ffmpeg-armv7/lib/libavcodec.a(fft_float.o)
                              /home/chris/work/ffmpeg/refs/ffmpeg-armv7/lib/libavcodec.a(dct.o) (ff_init_ff_cos_tabs)
/home/chris/work/ffmpeg/refs/ffmpeg-armv7/lib/libavcodec.a(fmtconvert.o)
                              /home/chris/work/ffmpeg/refs/ffmpeg-armv7/lib/libavcodec.a(aacdec.o) (ff_fmt_convert_init)
/home/chris/work/ffmpeg/refs/ffmpeg-armv7/lib/libavcodec.a(golomb.o)
                              /home/chris/work/ffmpeg/refs/ffmpeg-armv7/lib/libavcodec.a(h264.o) (ff_se_golomb_vlc_code)
/home/chris/work/ffmpeg/refs/ffmpeg-armv7/lib/libavcodec.a(h263.o)
                              /home/chris/work/ffmpeg/refs/ffmpeg-armv7/lib/libavcodec.a(h263dec.o) (ff_h263_update_motion_val)
/home/chris/work/ffmpeg/refs/ffmpeg-armv7/lib/libavcodec.a(imgconvert.o)
                              /home/chris/work/ffmpeg/refs/ffmpeg-armv7/lib/libavcodec.a(mpegvideo.o) (avcodec_get_chroma_sub_sample)
/home/chris/work/ffmpeg/refs/ffmpeg-armv7/lib/libavcodec.a(jrevdct.o)
                              /home/chris/work/ffmpeg/refs/ffmpeg-armv7/lib/libavcodec.a(dsputil.o) (ff_j_rev_dct)
/home/chris/work/ffmpeg/refs/ffmpeg-armv7/lib/libavcodec.a(kbdwin.o)
                              /home/chris/work/ffmpeg/refs/ffmpeg-armv7/lib/libavcodec.a(aacdec.o) (ff_kbd_window_init)
/home/chris/work/ffmpeg/refs/ffmpeg-armv7/lib/libavcodec.a(mdct_float.o)
                              /home/chris/work/ffmpeg/refs/ffmpeg-armv7/lib/libavcodec.a(fft_float.o) (ff_imdct_half_c)
/home/chris/work/ffmpeg/refs/ffmpeg-armv7/lib/libavcodec.a(mjpeg.o)
                              /home/chris/work/ffmpeg/refs/ffmpeg-armv7/lib/libavcodec.a(mjpeg2jpeg_bsf.o) (avpriv_mjpeg_val_ac_chrominance)
/home/chris/work/ffmpeg/refs/ffmpeg-armv7/lib/libavcodec.a(mpegaudio.o)
                              /home/chris/work/ffmpeg/refs/ffmpeg-armv7/lib/libavcodec.a(mpegaudiodec.o) (ff_mpa_l2_select_table)
/home/chris/work/ffmpeg/refs/ffmpeg-armv7/lib/libavcodec.a(mpegaudiodsp_data.o)
                              /home/chris/work/ffmpeg/refs/ffmpeg-armv7/lib/libavcodec.a(mpegaudiodsp_fixed.o) (ff_mpa_enwindow)
/home/chris/work/ffmpeg/refs/ffmpeg-armv7/lib/libavcodec.a(rdft.o)
                              /home/chris/work/ffmpeg/refs/ffmpeg-armv7/lib/libavcodec.a(dct.o) (ff_rdft_init)
/home/chris/work/ffmpeg/refs/ffmpeg-armv7/lib/libavcodec.a(sbrdsp.o)
                              /home/chris/work/ffmpeg/refs/ffmpeg-armv7/lib/libavcodec.a(aacsbr.o) (ff_sbrdsp_init)
/home/chris/work/ffmpeg/refs/ffmpeg-armv7/lib/libavcodec.a(simple_idct.o)
                              /home/chris/work/ffmpeg/refs/ffmpeg-armv7/lib/libavcodec.a(dsputil.o) (ff_simple_idct_put_8)
/home/chris/work/ffmpeg/refs/ffmpeg-armv7/lib/libavcodec.a(sinewin.o)
                              /home/chris/work/ffmpeg/refs/ffmpeg-armv7/lib/libavcodec.a(aacdec.o) (ff_init_ff_sine_windows)
/home/chris/work/ffmpeg/refs/ffmpeg-armv7/lib/libavcodec.a(aac_ac3_parser.o)
                              /home/chris/work/ffmpeg/refs/ffmpeg-armv7/lib/libavcodec.a(aac_parser.o) (ff_aac_ac3_parse)
/home/chris/work/ffmpeg/refs/ffmpeg-armv7/lib/libavcodec.a(aacps.o)
                              /home/chris/work/ffmpeg/refs/ffmpeg-armv7/lib/libavcodec.a(aacsbr.o) (ff_ps_read_data)
/home/chris/work/ffmpeg/refs/ffmpeg-armv7/lib/libavcodec.a(aacpsdsp.o)
                              /home/chris/work/ffmpeg/refs/ffmpeg-armv7/lib/libavcodec.a(aacps.o) (ff_psdsp_init)
/home/chris/work/ffmpeg/refs/ffmpeg-armv7/lib/libavcodec.a(ac3.o)
                              /home/chris/work/ffmpeg/refs/ffmpeg-armv7/lib/libavcodec.a(ac3dec.o) (ff_ac3_bit_alloc_calc_psd)
/home/chris/work/ffmpeg/refs/ffmpeg-armv7/lib/libavcodec.a(aacpsdsp_init_arm.o)
                              /home/chris/work/ffmpeg/refs/ffmpeg-armv7/lib/libavcodec.a(aacpsdsp.o) (ff_psdsp_init_arm)
/home/chris/work/ffmpeg/refs/ffmpeg-armv7/lib/libavcodec.a(aacpsdsp_neon.o)
                              /home/chris/work/ffmpeg/refs/ffmpeg-armv7/lib/libavcodec.a(aacpsdsp_init_arm.o) (ff_ps_add_squares_neon)
/home/chris/work/ffmpeg/refs/ffmpeg-armv7/lib/libavcodec.a(ac3dsp_arm.o)
                              /home/chris/work/ffmpeg/refs/ffmpeg-armv7/lib/libavcodec.a(ac3dsp_init_arm.o) (ff_ac3_update_bap_counts_arm)
/home/chris/work/ffmpeg/refs/ffmpeg-armv7/lib/libavcodec.a(ac3dsp_armv6.o)
                              /home/chris/work/ffmpeg/refs/ffmpeg-armv7/lib/libavcodec.a(ac3dsp_init_arm.o) (ff_ac3_bit_alloc_calc_bap_armv6)
/home/chris/work/ffmpeg/refs/ffmpeg-armv7/lib/libavcodec.a(dsputil_init_arm.o)
                              /home/chris/work/ffmpeg/refs/ffmpeg-armv7/lib/libavcodec.a(dsputil.o) (ff_dsputil_init_arm)
/home/chris/work/ffmpeg/refs/ffmpeg-armv7/lib/libavcodec.a(dsputil_init_armv5te.o)
                              /home/chris/work/ffmpeg/refs/ffmpeg-armv7/lib/libavcodec.a(dsputil_init_arm.o) (ff_dsputil_init_armv5te)
/home/chris/work/ffmpeg/refs/ffmpeg-armv7/lib/libavcodec.a(dsputil_init_armv6.o)
                              /home/chris/work/ffmpeg/refs/ffmpeg-armv7/lib/libavcodec.a(dsputil_init_arm.o) (ff_dsputil_init_armv6)
/home/chris/work/ffmpeg/refs/ffmpeg-armv7/lib/libavcodec.a(dsputil_init_neon.o)
                              /home/chris/work/ffmpeg/refs/ffmpeg-armv7/lib/libavcodec.a(dsputil_init_arm.o) (ff_dsputil_init_neon)
/home/chris/work/ffmpeg/refs/ffmpeg-armv7/lib/libavcodec.a(dsputil_neon.o)
                              /home/chris/work/ffmpeg/refs/ffmpeg-armv7/lib/libavcodec.a(dsputil_init_neon.o) (ff_clear_block_neon)
/home/chris/work/ffmpeg/refs/ffmpeg-armv7/lib/libavcodec.a(fft_init_arm.o)
                              /home/chris/work/ffmpeg/refs/ffmpeg-armv7/lib/libavcodec.a(fft_float.o) (ff_fft_init_arm)
/home/chris/work/ffmpeg/refs/ffmpeg-armv7/lib/libavcodec.a(fft_neon.o)
                              /home/chris/work/ffmpeg/refs/ffmpeg-armv7/lib/libavcodec.a(fft_init_arm.o) (ff_fft_calc_neon)
/home/chris/work/ffmpeg/refs/ffmpeg-armv7/lib/libavcodec.a(fmtconvert_init_arm.o)
                              /home/chris/work/ffmpeg/refs/ffmpeg-armv7/lib/libavcodec.a(fmtconvert.o) (ff_fmt_convert_init_arm)
/home/chris/work/ffmpeg/refs/ffmpeg-armv7/lib/libavcodec.a(fmtconvert_neon.o)
                              /home/chris/work/ffmpeg/refs/ffmpeg-armv7/lib/libavcodec.a(fmtconvert_init_arm.o) (ff_float_to_int16_neon)
/home/chris/work/ffmpeg/refs/ffmpeg-armv7/lib/libavcodec.a(fmtconvert_vfp.o)
                              /home/chris/work/ffmpeg/refs/ffmpeg-armv7/lib/libavcodec.a(fmtconvert_init_arm.o) (ff_float_to_int16_vfp)
/home/chris/work/ffmpeg/refs/ffmpeg-armv7/lib/libavcodec.a(int_neon.o)
                              /home/chris/work/ffmpeg/refs/ffmpeg-armv7/lib/libavcodec.a(dsputil_init_neon.o) (ff_scalarproduct_int16_neon)
/home/chris/work/ffmpeg/refs/ffmpeg-armv7/lib/libavcodec.a(jrevdct_arm.o)
                              /home/chris/work/ffmpeg/refs/ffmpeg-armv7/lib/libavcodec.a(dsputil_init_arm.o) (ff_j_rev_dct_arm)
/home/chris/work/ffmpeg/refs/ffmpeg-armv7/lib/libavcodec.a(mdct_neon.o)
                              /home/chris/work/ffmpeg/refs/ffmpeg-armv7/lib/libavcodec.a(fft_init_arm.o) (ff_imdct_half_neon)
/home/chris/work/ffmpeg/refs/ffmpeg-armv7/lib/libavcodec.a(mpegaudiodsp_fixed_armv6.o)
                              /home/chris/work/ffmpeg/refs/ffmpeg-armv7/lib/libavcodec.a(mpegaudiodsp_init_arm.o) (ff_mpadsp_apply_window_fixed_armv6)
/home/chris/work/ffmpeg/refs/ffmpeg-armv7/lib/libavcodec.a(rdft_neon.o)
                              /home/chris/work/ffmpeg/refs/ffmpeg-armv7/lib/libavcodec.a(fft_init_arm.o) (ff_rdft_calc_neon)
/home/chris/work/ffmpeg/refs/ffmpeg-armv7/lib/libavcodec.a(sbrdsp_init_arm.o)
                              /home/chris/work/ffmpeg/refs/ffmpeg-armv7/lib/libavcodec.a(sbrdsp.o) (ff_sbrdsp_init_arm)
/home/chris/work/ffmpeg/refs/ffmpeg-armv7/lib/libavcodec.a(sbrdsp_neon.o)
                              /home/chris/work/ffmpeg/refs/ffmpeg-armv7/lib/libavcodec.a(sbrdsp_init_arm.o) (ff_sbr_sum64x5_neon)
/home/chris/work/ffmpeg/refs/ffmpeg-armv7/lib/libavcodec.a(simple_idct_arm.o)
                              /home/chris/work/ffmpeg/refs/ffmpeg-armv7/lib/libavcodec.a(dsputil_init_arm.o) (ff_simple_idct_arm)
/home/chris/work/ffmpeg/refs/ffmpeg-armv7/lib/libavcodec.a(simple_idct_armv5te.o)
                              /home/chris/work/ffmpeg/refs/ffmpeg-armv7/lib/libavcodec.a(dsputil_init_armv5te.o) (ff_simple_idct_armv5te)
/home/chris/work/ffmpeg/refs/ffmpeg-armv7/lib/libavcodec.a(simple_idct_armv6.o)
                              /home/chris/work/ffmpeg/refs/ffmpeg-armv7/lib/libavcodec.a(dsputil_init_armv6.o) (ff_simple_idct_armv6)
/home/chris/work/ffmpeg/refs/ffmpeg-armv7/lib/libavcodec.a(simple_idct_neon.o)
                              /home/chris/work/ffmpeg/refs/ffmpeg-armv7/lib/libavcodec.a(dsputil_init_neon.o) (ff_simple_idct_put_neon)
/home/chris/work/ffmpeg/refs/ffmpeg-armv7/lib/libavcodec.a(videodsp_armv5te.o)
                              /home/chris/work/ffmpeg/refs/ffmpeg-armv7/lib/libavcodec.a(videodsp_init_armv5te.o) (ff_prefetch_arm)
/home/chris/work/ffmpeg/refs/ffmpeg-armv7/lib/libavcodec.a(dsputil_arm.o)
                              /home/chris/work/ffmpeg/refs/ffmpeg-armv7/lib/libavcodec.a(dsputil_init_arm.o) (ff_put_pixels16_arm)
/home/chris/work/ffmpeg/refs/ffmpeg-armv7/lib/libavcodec.a(dsputil_armv6.o)
                              /home/chris/work/ffmpeg/refs/ffmpeg-armv7/lib/libavcodec.a(dsputil_init_armv6.o) (ff_avg_pixels16_armv6)
/home/chris/work/ffmpeg/refs/ffmpeg-armv7/lib/libswscale.a(swscale.o)
                              ./obj/local/armeabi/objs/xplayer/decode_video.o (sws_scale)
/home/chris/work/ffmpeg/refs/ffmpeg-armv7/lib/libswscale.a(utils.o)
                              ./obj/local/armeabi/objs/xplayer/decode_video.o (sws_getContext)
/home/chris/work/ffmpeg/refs/ffmpeg-armv7/lib/libswscale.a(yuv2rgb.o)
                              /home/chris/work/ffmpeg/refs/ffmpeg-armv7/lib/libswscale.a(utils.o) (ff_yuv2rgb_coeffs)
/home/chris/work/ffmpeg/refs/ffmpeg-armv7/lib/libswscale.a(input.o)
                              /home/chris/work/ffmpeg/refs/ffmpeg-armv7/lib/libswscale.a(swscale.o) (ff_sws_init_input_funcs)
/home/chris/work/ffmpeg/refs/ffmpeg-armv7/lib/libswscale.a(options.o)
                              /home/chris/work/ffmpeg/refs/ffmpeg-armv7/lib/libswscale.a(utils.o) (sws_context_class)
/home/chris/work/ffmpeg/refs/ffmpeg-armv7/lib/libswscale.a(output.o)
                              /home/chris/work/ffmpeg/refs/ffmpeg-armv7/lib/libswscale.a(yuv2rgb.o) (dither_8x8_220)
/home/chris/work/ffmpeg/refs/ffmpeg-armv7/lib/libswscale.a(rgb2rgb.o)
                              /home/chris/work/ffmpeg/refs/ffmpeg-armv7/lib/libswscale.a(utils.o) (sws_rgb2rgb_init)
/home/chris/work/ffmpeg/refs/ffmpeg-armv7/lib/libswscale.a(swscale_unscaled.o)
                              /home/chris/work/ffmpeg/refs/ffmpeg-armv7/lib/libswscale.a(utils.o) (ff_get_unscaled_swscale)
/home/chris/work/ffmpeg/refs/ffmpeg-armv7/lib/libswresample.a(swresample.o)
                              ./obj/local/armeabi/objs/xplayer/decode_audio.o (swr_alloc_set_opts)
/home/chris/work/ffmpeg/refs/ffmpeg-armv7/lib/libswresample.a(audioconvert.o)
                              /home/chris/work/ffmpeg/refs/ffmpeg-armv7/lib/libswresample.a(swresample.o) (swri_audio_convert_alloc)
/home/chris/work/ffmpeg/refs/ffmpeg-armv7/lib/libswresample.a(dither.o)
                              /home/chris/work/ffmpeg/refs/ffmpeg-armv7/lib/libswresample.a(swresample.o) (swri_get_dither)
/home/chris/work/ffmpeg/refs/ffmpeg-armv7/lib/libswresample.a(rematrix.o)
                              /home/chris/work/ffmpeg/refs/ffmpeg-armv7/lib/libswresample.a(swresample.o) (swri_rematrix_init)
/home/chris/work/ffmpeg/refs/ffmpeg-armv7/lib/libswresample.a(resample.o)
                              /home/chris/work/ffmpeg/refs/ffmpeg-armv7/lib/libswresample.a(swresample.o) (swri_resampler)
/home/chris/work/ffmpeg/refs/ffmpeg-armv7/lib/libswresample.a(audio_convert_init.o)
                              /home/chris/work/ffmpeg/refs/ffmpeg-armv7/lib/libswresample.a(audioconvert.o) (swri_audio_convert_init_arm)
/home/chris/work/ffmpeg/refs/ffmpeg-armv7/lib/libswresample.a(audio_convert_neon.o)
                              /home/chris/work/ffmpeg/refs/ffmpeg-armv7/lib/libswresample.a(audio_convert_init.o) (swri_oldapi_conv_flt_to_s16_neon)
/home/chris/work/ffmpeg/refs/ffmpeg-armv7/lib/libavutil.a(avstring.o)
                              /home/chris/work/ffmpeg/refs/ffmpeg-armv7/lib/libavformat.a(file.o) (av_strstart)
/home/chris/work/ffmpeg/refs/ffmpeg-armv7/lib/libavutil.a(base64.o)
                              /home/chris/work/ffmpeg/refs/ffmpeg-armv7/lib/libavformat.a(httpauth.o) (av_base64_encode)
/home/chris/work/ffmpeg/refs/ffmpeg-armv7/lib/libavutil.a(bprint.o)
                              /home/chris/work/ffmpeg/refs/ffmpeg-armv7/lib/libavutil.a(avstring.o) (av_bprint_init)
/home/chris/work/ffmpeg/refs/ffmpeg-armv7/lib/libavutil.a(channel_layout.o)
                              /home/chris/work/ffmpeg/refs/ffmpeg-armv7/lib/libavformat.a(mov.o) (av_get_channel_layout_nb_channels)
/home/chris/work/ffmpeg/refs/ffmpeg-armv7/lib/libavutil.a(cpu.o)
                              /home/chris/work/ffmpeg/refs/ffmpeg-armv7/lib/libavcodec.a(ac3dsp_init_arm.o) (av_get_cpu_flags)
/home/chris/work/ffmpeg/refs/ffmpeg-armv7/lib/libavutil.a(crc.o)
                              /home/chris/work/ffmpeg/refs/ffmpeg-armv7/lib/libavformat.a(mpegts.o) (av_crc_get_table)
/home/chris/work/ffmpeg/refs/ffmpeg-armv7/lib/libavutil.a(dict.o)
                              /home/chris/work/ffmpeg/refs/ffmpeg-armv7/lib/libavformat.a(utils.o) (av_dict_count)
/home/chris/work/ffmpeg/refs/ffmpeg-armv7/lib/libavutil.a(error.o)
                              /home/chris/work/ffmpeg/refs/ffmpeg-armv7/lib/libavformat.a(tcp.o) (av_strerror)
/home/chris/work/ffmpeg/refs/ffmpeg-armv7/lib/libavutil.a(float_dsp.o)
                              /home/chris/work/ffmpeg/refs/ffmpeg-armv7/lib/libavcodec.a(mpegaudiodec.o) (avpriv_float_dsp_init)
/home/chris/work/ffmpeg/refs/ffmpeg-armv7/lib/libavutil.a(imgutils.o)
                              /home/chris/work/ffmpeg/refs/ffmpeg-armv7/lib/libavcodec.a(utils.o) (av_image_fill_linesizes)
/home/chris/work/ffmpeg/refs/ffmpeg-armv7/lib/libavutil.a(lfg.o)
                              /home/chris/work/ffmpeg/refs/ffmpeg-armv7/lib/libavcodec.a(ac3dec.o) (av_lfg_init)
/home/chris/work/ffmpeg/refs/ffmpeg-armv7/lib/libavutil.a(log.o)
                              /home/chris/work/ffmpeg/refs/ffmpeg-armv7/lib/libavformat.a(file.o) (av_default_item_name)
/home/chris/work/ffmpeg/refs/ffmpeg-armv7/lib/libavutil.a(log2_tab.o)
                              /home/chris/work/ffmpeg/refs/ffmpeg-armv7/lib/libavcodec.a(aacps.o) (ff_log2_tab)
/home/chris/work/ffmpeg/refs/ffmpeg-armv7/lib/libavutil.a(mathematics.o)
                              /home/chris/work/ffmpeg/refs/ffmpeg-armv7/lib/libavformat.a(utils.o) (av_gcd)
/home/chris/work/ffmpeg/refs/ffmpeg-armv7/lib/libavutil.a(md5.o)
                              /home/chris/work/ffmpeg/refs/ffmpeg-armv7/lib/libavformat.a(httpauth.o) (av_md5_alloc)
/home/chris/work/ffmpeg/refs/ffmpeg-armv7/lib/libavutil.a(mem.o)
                              ./obj/local/armeabi/objs/xplayer/packet_queue.o (av_malloc)
/home/chris/work/ffmpeg/refs/ffmpeg-armv7/lib/libavutil.a(opt.o)
                              /home/chris/work/ffmpeg/refs/ffmpeg-armv7/lib/libavformat.a(avio.o) (av_opt_free)
/home/chris/work/ffmpeg/refs/ffmpeg-armv7/lib/libavutil.a(parseutils.o)
                              /home/chris/work/ffmpeg/refs/ffmpeg-armv7/lib/libavutil.a(opt.o) (av_parse_video_size)
/home/chris/work/ffmpeg/refs/ffmpeg-armv7/lib/libavutil.a(pixdesc.o)
                              /home/chris/work/ffmpeg/refs/ffmpeg-armv7/lib/libavcodec.a(utils.o) (av_get_pix_fmt_name)
/home/chris/work/ffmpeg/refs/ffmpeg-armv7/lib/libavutil.a(random_seed.o)
                              /home/chris/work/ffmpeg/refs/ffmpeg-armv7/lib/libavformat.a(httpauth.o) (av_get_random_seed)
/home/chris/work/ffmpeg/refs/ffmpeg-armv7/lib/libavutil.a(rational.o)
                              /home/chris/work/ffmpeg/refs/ffmpeg-armv7/lib/libavformat.a(mov.o) (av_reduce)
/home/chris/work/ffmpeg/refs/ffmpeg-armv7/lib/libavutil.a(samplefmt.o)
                              /home/chris/work/ffmpeg/refs/ffmpeg-armv7/lib/libavcodec.a(utils.o) (av_get_sample_fmt_name)
/home/chris/work/ffmpeg/refs/ffmpeg-armv7/lib/libavutil.a(sha.o)
                              /home/chris/work/ffmpeg/refs/ffmpeg-armv7/lib/libavutil.a(random_seed.o) (av_sha_init)
/home/chris/work/ffmpeg/refs/ffmpeg-armv7/lib/libavutil.a(time.o)
                              /home/chris/work/ffmpeg/refs/ffmpeg-armv7/lib/libavformat.a(avio.o) (av_gettime)
/home/chris/work/ffmpeg/refs/ffmpeg-armv7/lib/libavutil.a(timecode.o)
                              /home/chris/work/ffmpeg/refs/ffmpeg-armv7/lib/libavformat.a(mov.o) (av_timecode_make_string)
/home/chris/work/ffmpeg/refs/ffmpeg-armv7/lib/libavutil.a(utils.o)
                              /home/chris/work/ffmpeg/refs/ffmpeg-armv7/lib/libavcodec.a(utils.o) (av_get_media_type_string)
/home/chris/work/ffmpeg/refs/ffmpeg-armv7/lib/libavutil.a(cpu.o)
                              /home/chris/work/ffmpeg/refs/ffmpeg-armv7/lib/libavutil.a(cpu.o) (ff_get_cpu_flags_arm)
/home/chris/work/ffmpeg/refs/ffmpeg-armv7/lib/libavutil.a(float_dsp_init_arm.o)
                              /home/chris/work/ffmpeg/refs/ffmpeg-armv7/lib/libavutil.a(float_dsp.o) (ff_float_dsp_init_arm)
/home/chris/work/ffmpeg/refs/ffmpeg-armv7/lib/libavutil.a(float_dsp_init_neon.o)
                              /home/chris/work/ffmpeg/refs/ffmpeg-armv7/lib/libavutil.a(float_dsp_init_arm.o) (ff_float_dsp_init_neon)
/home/chris/work/ffmpeg/refs/ffmpeg-armv7/lib/libavutil.a(float_dsp_init_vfp.o)
                              /home/chris/work/ffmpeg/refs/ffmpeg-armv7/lib/libavutil.a(float_dsp_init_arm.o) (ff_float_dsp_init_vfp)
/home/chris/work/ffmpeg/refs/ffmpeg-armv7/lib/libavutil.a(float_dsp_neon.o)
                              /home/chris/work/ffmpeg/refs/ffmpeg-armv7/lib/libavutil.a(float_dsp_init_neon.o) (ff_vector_fmul_neon)
/home/chris/work/ffmpeg/refs/ffmpeg-armv7/lib/libavutil.a(float_dsp_vfp.o)
                              /home/chris/work/ffmpeg/refs/ffmpeg-armv7/lib/libavutil.a(float_dsp_init_vfp.o) (ff_vector_fmul_vfp)
/home/chris/work/ffmpeg/refs/ffmpeg-armv7/lib/libavutil.a(eval.o)
                              /home/chris/work/ffmpeg/refs/ffmpeg-armv7/lib/libavutil.a(opt.o) (av_expr_parse_and_eval)
/home/chris/work/android/android-ndk-r8d/toolchains/arm-linux-androideabi-4.6/prebuilt/linux-x86/bin/../lib/gcc/arm-linux-androideabi/4.6/libgcc.a(_udivsi3.o)
                              /home/chris/work/ffmpeg/refs/ffmpeg-armv7/lib/libavformat.a(mov.o) (__aeabi_uidiv)
/home/chris/work/android/android-ndk-r8d/toolchains/arm-linux-androideabi-4.6/prebuilt/linux-x86/bin/../lib/gcc/arm-linux-androideabi/4.6/libgcc.a(_divsi3.o)
                              ./obj/local/armeabi/objs/xplayer/decode_audio.o (__aeabi_idiv)
/home/chris/work/android/android-ndk-r8d/toolchains/arm-linux-androideabi-4.6/prebuilt/linux-x86/bin/../lib/gcc/arm-linux-androideabi/4.6/libgcc.a(_lshrdi3.o)
                              /home/chris/work/ffmpeg/refs/ffmpeg-armv7/lib/libswresample.a(rematrix.o) (__aeabi_llsr)
/home/chris/work/android/android-ndk-r8d/toolchains/arm-linux-androideabi-4.6/prebuilt/linux-x86/bin/../lib/gcc/arm-linux-androideabi/4.6/libgcc.a(_ashldi3.o)
                              /home/chris/work/ffmpeg/refs/ffmpeg-armv7/lib/libavcodec.a(mpegaudiodec.o) (__aeabi_llsl)
/home/chris/work/android/android-ndk-r8d/toolchains/arm-linux-androideabi-4.6/prebuilt/linux-x86/bin/../lib/gcc/arm-linux-androideabi/4.6/libgcc.a(_arm_addsubdf3.o)
                              ./obj/local/armeabi/objs/xplayer/decode_video.o (__aeabi_dsub)
/home/chris/work/android/android-ndk-r8d/toolchains/arm-linux-androideabi-4.6/prebuilt/linux-x86/bin/../lib/gcc/arm-linux-androideabi/4.6/libgcc.a(_arm_muldivdf3.o)
                              ./obj/local/armeabi/objs/xplayer/decode_audio.o (__aeabi_dmul)
/home/chris/work/android/android-ndk-r8d/toolchains/arm-linux-androideabi-4.6/prebuilt/linux-x86/bin/../lib/gcc/arm-linux-androideabi/4.6/libgcc.a(_arm_cmpdf2.o)
                              ./obj/local/armeabi/objs/xplayer/decode_video.o (__aeabi_dcmpge)
/home/chris/work/android/android-ndk-r8d/toolchains/arm-linux-androideabi-4.6/prebuilt/linux-x86/bin/../lib/gcc/arm-linux-androideabi/4.6/libgcc.a(_arm_fixunsdfsi.o)
                              ./obj/local/armeabi/objs/xplayer/opengl_video_play.o (__aeabi_d2uiz)
/home/chris/work/android/android-ndk-r8d/toolchains/arm-linux-androideabi-4.6/prebuilt/linux-x86/bin/../lib/gcc/arm-linux-androideabi/4.6/libgcc.a(_arm_addsubsf3.o)
                              /home/chris/work/ffmpeg/refs/ffmpeg-armv7/lib/libavformat.a(utils.o) (__aeabi_l2f)
/home/chris/work/android/android-ndk-r8d/toolchains/arm-linux-androideabi-4.6/prebuilt/linux-x86/bin/../lib/gcc/arm-linux-androideabi/4.6/libgcc.a(_aeabi_ldivmod.o)
                              /home/chris/work/ffmpeg/refs/ffmpeg-armv7/lib/libavformat.a(mov.o) (__aeabi_ldivmod)
/home/chris/work/android/android-ndk-r8d/toolchains/arm-linux-androideabi-4.6/prebuilt/linux-x86/bin/../lib/gcc/arm-linux-androideabi/4.6/libgcc.a(_aeabi_uldivmod.o)
                              /home/chris/work/ffmpeg/refs/ffmpeg-armv7/lib/libavformat.a(mov.o) (__aeabi_uldivmod)
/home/chris/work/android/android-ndk-r8d/toolchains/arm-linux-androideabi-4.6/prebuilt/linux-x86/bin/../lib/gcc/arm-linux-androideabi/4.6/libgcc.a(_dvmd_lnx.o)
                              /home/chris/work/android/android-ndk-r8d/toolchains/arm-linux-androideabi-4.6/prebuilt/linux-x86/bin/../lib/gcc/arm-linux-androideabi/4.6/libgcc.a(_udivsi3.o) (__aeabi_idiv0)
/home/chris/work/android/android-ndk-r8d/toolchains/arm-linux-androideabi-4.6/prebuilt/linux-x86/bin/../lib/gcc/arm-linux-androideabi/4.6/libgcc.a(_fixdfdi.o)
                              /home/chris/work/ffmpeg/refs/ffmpeg-armv7/lib/libavformat.a(flvdec.o) (__aeabi_d2lz)
/home/chris/work/android/android-ndk-r8d/toolchains/arm-linux-androideabi-4.6/prebuilt/linux-x86/bin/../lib/gcc/arm-linux-androideabi/4.6/libgcc.a(_fixunsdfdi.o)
                              /home/chris/work/ffmpeg/refs/ffmpeg-armv7/lib/libavutil.a(eval.o) (__aeabi_d2ulz)
/home/chris/work/android/android-ndk-r8d/toolchains/arm-linux-androideabi-4.6/prebuilt/linux-x86/bin/../lib/gcc/arm-linux-androideabi/4.6/libgcc.a(bpabi.o)
                              /home/chris/work/android/android-ndk-r8d/toolchains/arm-linux-androideabi-4.6/prebuilt/linux-x86/bin/../lib/gcc/arm-linux-androideabi/4.6/libgcc.a(_aeabi_ldivmod.o) (__gnu_ldivmod_helper)
/home/chris/work/android/android-ndk-r8d/toolchains/arm-linux-androideabi-4.6/prebuilt/linux-x86/bin/../lib/gcc/arm-linux-androideabi/4.6/libgcc.a(unwind-arm.o)
                              ./obj/local/armeabi/objs/xplayer/com_chris_yanlong_XPlayer.o (__aeabi_unwind_cpp_pr0)
/home/chris/work/android/android-ndk-r8d/toolchains/arm-linux-androideabi-4.6/prebuilt/linux-x86/bin/../lib/gcc/arm-linux-androideabi/4.6/libgcc.a(libunwind.o)
                              /home/chris/work/android/android-ndk-r8d/toolchains/arm-linux-androideabi-4.6/prebuilt/linux-x86/bin/../lib/gcc/arm-linux-androideabi/4.6/libgcc.a(unwind-arm.o) (restore_core_regs)
/home/chris/work/android/android-ndk-r8d/toolchains/arm-linux-androideabi-4.6/prebuilt/linux-x86/bin/../lib/gcc/arm-linux-androideabi/4.6/libgcc.a(pr-support.o)
                              /home/chris/work/android/android-ndk-r8d/toolchains/arm-linux-androideabi-4.6/prebuilt/linux-x86/bin/../lib/gcc/arm-linux-androideabi/4.6/libgcc.a(unwind-arm.o) (__gnu_unwind_execute)
/home/chris/work/android/android-ndk-r8d/toolchains/arm-linux-androideabi-4.6/prebuilt/linux-x86/bin/../lib/gcc/arm-linux-androideabi/4.6/libgcc.a(_divdi3.o)
                              /home/chris/work/android/android-ndk-r8d/toolchains/arm-linux-androideabi-4.6/prebuilt/linux-x86/bin/../lib/gcc/arm-linux-androideabi/4.6/libgcc.a(bpabi.o) (__divdi3)
/home/chris/work/android/android-ndk-r8d/toolchains/arm-linux-androideabi-4.6/prebuilt/linux-x86/bin/../lib/gcc/arm-linux-androideabi/4.6/libgcc.a(_udivdi3.o)
                              /home/chris/work/android/android-ndk-r8d/toolchains/arm-linux-androideabi-4.6/prebuilt/linux-x86/bin/../lib/gcc/arm-linux-androideabi/4.6/libgcc.a(bpabi.o) (__udivdi3)

Allocating common symbols
Common symbol       size              file

audio_buf           0x46500           ./obj/local/armeabi/objs/xplayer/opensl_audio_play.o
ff_cos_65536        0x20000           /home/chris/work/ffmpeg/refs/ffmpeg-armv7/lib/libavcodec.a(fft_float.o)
ff_sin_65536        0x20000           /home/chris/work/ffmpeg/refs/ffmpeg-armv7/lib/libavcodec.a(rdft.o)
ff_cos_32768        0x10000           /home/chris/work/ffmpeg/refs/ffmpeg-armv7/lib/libavcodec.a(fft_float.o)
ff_sin_32768        0x10000           /home/chris/work/ffmpeg/refs/ffmpeg-armv7/lib/libavcodec.a(rdft.o)
ff_cos_16384        0x8000            /home/chris/work/ffmpeg/refs/ffmpeg-armv7/lib/libavcodec.a(fft_float.o)
ff_sine_8192        0x8000            /home/chris/work/ffmpeg/refs/ffmpeg-armv7/lib/libavcodec.a(sinewin.o)
ff_sin_16384        0x8000            /home/chris/work/ffmpeg/refs/ffmpeg-armv7/lib/libavcodec.a(rdft.o)
ff_cos_8192         0x4000            /home/chris/work/ffmpeg/refs/ffmpeg-armv7/lib/libavcodec.a(fft_float.o)
ff_sine_4096        0x4000            /home/chris/work/ffmpeg/refs/ffmpeg-armv7/lib/libavcodec.a(sinewin.o)
ff_sin_8192         0x4000            /home/chris/work/ffmpeg/refs/ffmpeg-armv7/lib/libavcodec.a(rdft.o)
ff_cos_4096         0x2000            /home/chris/work/ffmpeg/refs/ffmpeg-armv7/lib/libavcodec.a(fft_float.o)
ff_sine_2048        0x2000            /home/chris/work/ffmpeg/refs/ffmpeg-armv7/lib/libavcodec.a(sinewin.o)
ff_sin_4096         0x2000            /home/chris/work/ffmpeg/refs/ffmpeg-armv7/lib/libavcodec.a(rdft.o)
ff_aac_kbd_long_1024
                    0x1000            /home/chris/work/ffmpeg/refs/ffmpeg-armv7/lib/libavcodec.a(aactab.o)
ff_cos_2048         0x1000            /home/chris/work/ffmpeg/refs/ffmpeg-armv7/lib/libavcodec.a(fft_float.o)
ff_sine_1024        0x1000            /home/chris/work/ffmpeg/refs/ffmpeg-armv7/lib/libavcodec.a(sinewin.o)
ff_sin_2048         0x1000            /home/chris/work/ffmpeg/refs/ffmpeg-armv7/lib/libavcodec.a(rdft.o)
ff_mpa_synth_window_fixed
                    0xc00             /home/chris/work/ffmpeg/refs/ffmpeg-armv7/lib/libavcodec.a(mpegaudiodsp_fixed.o)
ff_mpa_synth_window_float
                    0xc00             /home/chris/work/ffmpeg/refs/ffmpeg-armv7/lib/libavcodec.a(mpegaudiodsp_float.o)
ff_cos_1024         0x800             /home/chris/work/ffmpeg/refs/ffmpeg-armv7/lib/libavcodec.a(fft_float.o)
ff_sine_512         0x800             /home/chris/work/ffmpeg/refs/ffmpeg-armv7/lib/libavcodec.a(sinewin.o)
ff_sin_1024         0x800             /home/chris/work/ffmpeg/refs/ffmpeg-armv7/lib/libavcodec.a(rdft.o)
ff_aac_pow2sf_tab   0x6b0             /home/chris/work/ffmpeg/refs/ffmpeg-armv7/lib/libavcodec.a(aactab.o)
ff_mdct_win_fixed   0x500             /home/chris/work/ffmpeg/refs/ffmpeg-armv7/lib/libavcodec.a(mpegaudiodsp_fixed.o)
ff_mdct_win_float   0x500             /home/chris/work/ffmpeg/refs/ffmpeg-armv7/lib/libavcodec.a(mpegaudiodsp_float.o)
ff_mpeg4_static_rl_table_store
                    0x492             /home/chris/work/ffmpeg/refs/ffmpeg-armv7/lib/libavcodec.a(mpeg4video.o)
ff_cos_512          0x400             /home/chris/work/ffmpeg/refs/ffmpeg-armv7/lib/libavcodec.a(fft_float.o)
ff_sine_256         0x400             /home/chris/work/ffmpeg/refs/ffmpeg-armv7/lib/libavcodec.a(sinewin.o)
ff_sin_512          0x400             /home/chris/work/ffmpeg/refs/ffmpeg-armv7/lib/libavcodec.a(rdft.o)
ff_h263_static_rl_table_store
                    0x30c             /home/chris/work/ffmpeg/refs/ffmpeg-armv7/lib/libavcodec.a(h263.o)
ff_mpeg12_static_rl_table_store
                    0x30c             /home/chris/work/ffmpeg/refs/ffmpeg-armv7/lib/libavcodec.a(mpeg12.o)
ff_aac_kbd_short_128
                    0x200             /home/chris/work/ffmpeg/refs/ffmpeg-armv7/lib/libavcodec.a(aactab.o)
ff_cos_256          0x200             /home/chris/work/ffmpeg/refs/ffmpeg-armv7/lib/libavcodec.a(fft_float.o)
ff_sine_128         0x200             /home/chris/work/ffmpeg/refs/ffmpeg-armv7/lib/libavcodec.a(sinewin.o)
ff_sin_256          0x200             /home/chris/work/ffmpeg/refs/ffmpeg-armv7/lib/libavcodec.a(rdft.o)
ff_cos_128          0x100             /home/chris/work/ffmpeg/refs/ffmpeg-armv7/lib/libavcodec.a(fft_float.o)
ff_sine_64          0x100             /home/chris/work/ffmpeg/refs/ffmpeg-armv7/lib/libavcodec.a(sinewin.o)
ff_sin_128          0x100             /home/chris/work/ffmpeg/refs/ffmpeg-armv7/lib/libavcodec.a(rdft.o)
ff_ac3_bin_to_band_tab
                    0xfd              /home/chris/work/ffmpeg/refs/ffmpeg-armv7/lib/libavcodec.a(ac3.o)
ff_cos_64           0x80              /home/chris/work/ffmpeg/refs/ffmpeg-armv7/lib/libavcodec.a(fft_float.o)
ff_sine_32          0x80              /home/chris/work/ffmpeg/refs/ffmpeg-armv7/lib/libavcodec.a(sinewin.o)
ff_inv_zigzag_direct16
                    0x80              /home/chris/work/ffmpeg/refs/ffmpeg-armv7/lib/libavcodec.a(dsputil.o)
ff_sin_64           0x80              /home/chris/work/ffmpeg/refs/ffmpeg-armv7/lib/libavcodec.a(rdft.o)
ff_cos_32           0x40              /home/chris/work/ffmpeg/refs/ffmpeg-armv7/lib/libavcodec.a(fft_float.o)
ff_sin_32           0x40              /home/chris/work/ffmpeg/refs/ffmpeg-armv7/lib/libavcodec.a(rdft.o)
openslgs            0x28              ./obj/local/armeabi/objs/xplayer/opensl_audio_play.o
ff_cos_16           0x20              /home/chris/work/ffmpeg/refs/ffmpeg-armv7/lib/libavcodec.a(fft_float.o)
ff_sin_16           0x20              /home/chris/work/ffmpeg/refs/ffmpeg-armv7/lib/libavcodec.a(rdft.o)
ff_dc_chroma_vlc    0x10              /home/chris/work/ffmpeg/refs/ffmpeg-armv7/lib/libavcodec.a(mpeg12.o)
ff_dc_lum_vlc       0x10              /home/chris/work/ffmpeg/refs/ffmpeg-armv7/lib/libavcodec.a(mpeg12.o)
ff_h263_cbpy_vlc    0x10              /home/chris/work/ffmpeg/refs/ffmpeg-armv7/lib/libavcodec.a(ituh263dec.o)
ff_h263_inter_MCBPC_vlc
                    0x10              /home/chris/work/ffmpeg/refs/ffmpeg-armv7/lib/libavcodec.a(ituh263dec.o)
ff_h263_intra_MCBPC_vlc
                    0x10              /home/chris/work/ffmpeg/refs/ffmpeg-armv7/lib/libavcodec.a(ituh263dec.o)
delay_time          0x8               ./obj/local/armeabi/objs/xplayer/opengl_video_play.o
ff_avcodec_locked   0x4               /home/chris/work/ffmpeg/refs/ffmpeg-armv7/lib/libavcodec.a(utils.o)
ff_network_inited_globally
                    0x4               /home/chris/work/ffmpeg/refs/ffmpeg-armv7/lib/libavformat.a(network.o)
interleaveBytes     0x4               /home/chris/work/ffmpeg/refs/ffmpeg-armv7/lib/libswscale.a(rgb2rgb.o)
planar2x            0x4               /home/chris/work/ffmpeg/refs/ffmpeg-armv7/lib/libswscale.a(rgb2rgb.o)
rgb15to16           0x4               /home/chris/work/ffmpeg/refs/ffmpeg-armv7/lib/libswscale.a(rgb2rgb.o)
rgb15to32           0x4               /home/chris/work/ffmpeg/refs/ffmpeg-armv7/lib/libswscale.a(rgb2rgb.o)
rgb15tobgr24        0x4               /home/chris/work/ffmpeg/refs/ffmpeg-armv7/lib/libswscale.a(rgb2rgb.o)
rgb16to15           0x4               /home/chris/work/ffmpeg/refs/ffmpeg-armv7/lib/libswscale.a(rgb2rgb.o)
rgb16to32           0x4               /home/chris/work/ffmpeg/refs/ffmpeg-armv7/lib/libswscale.a(rgb2rgb.o)
rgb16tobgr24        0x4               /home/chris/work/ffmpeg/refs/ffmpeg-armv7/lib/libswscale.a(rgb2rgb.o)
rgb24to15           0x4               /home/chris/work/ffmpeg/refs/ffmpeg-armv7/lib/libswscale.a(rgb2rgb.o)
rgb24to16           0x4               /home/chris/work/ffmpeg/refs/ffmpeg-armv7/lib/libswscale.a(rgb2rgb.o)
rgb24tobgr15        0x4               /home/chris/work/ffmpeg/refs/ffmpeg-armv7/lib/libswscale.a(rgb2rgb.o)
rgb24tobgr16        0x4               /home/chris/work/ffmpeg/refs/ffmpeg-armv7/lib/libswscale.a(rgb2rgb.o)
rgb24tobgr24        0x4               /home/chris/work/ffmpeg/refs/ffmpeg-armv7/lib/libswscale.a(rgb2rgb.o)
rgb24tobgr32        0x4               /home/chris/work/ffmpeg/refs/ffmpeg-armv7/lib/libswscale.a(rgb2rgb.o)
rgb24toyv12         0x4               /home/chris/work/ffmpeg/refs/ffmpeg-armv7/lib/libswscale.a(rgb2rgb.o)
rgb32to15           0x4               /home/chris/work/ffmpeg/refs/ffmpeg-armv7/lib/libswscale.a(rgb2rgb.o)
rgb32to16           0x4               /home/chris/work/ffmpeg/refs/ffmpeg-armv7/lib/libswscale.a(rgb2rgb.o)
rgb32tobgr15        0x4               /home/chris/work/ffmpeg/refs/ffmpeg-armv7/lib/libswscale.a(rgb2rgb.o)
rgb32tobgr16        0x4               /home/chris/work/ffmpeg/refs/ffmpeg-armv7/lib/libswscale.a(rgb2rgb.o)
rgb32tobgr24        0x4               /home/chris/work/ffmpeg/refs/ffmpeg-armv7/lib/libswscale.a(rgb2rgb.o)
shuffle_bytes_2103  0x4               /home/chris/work/ffmpeg/refs/ffmpeg-armv7/lib/libswscale.a(rgb2rgb.o)
uyvytoyuv420        0x4               /home/chris/work/ffmpeg/refs/ffmpeg-armv7/lib/libswscale.a(rgb2rgb.o)
uyvytoyuv422        0x4               /home/chris/work/ffmpeg/refs/ffmpeg-armv7/lib/libswscale.a(rgb2rgb.o)
vu9_to_vu12         0x4               /home/chris/work/ffmpeg/refs/ffmpeg-armv7/lib/libswscale.a(rgb2rgb.o)
yuv422ptouyvy       0x4               /home/chris/work/ffmpeg/refs/ffmpeg-armv7/lib/libswscale.a(rgb2rgb.o)
yuv422ptoyuy2       0x4               /home/chris/work/ffmpeg/refs/ffmpeg-armv7/lib/libswscale.a(rgb2rgb.o)
yuy2toyv12          0x4               /home/chris/work/ffmpeg/refs/ffmpeg-armv7/lib/libswscale.a(rgb2rgb.o)
yuyvtoyuv420        0x4               /home/chris/work/ffmpeg/refs/ffmpeg-armv7/lib/libswscale.a(rgb2rgb.o)
yuyvtoyuv422        0x4               /home/chris/work/ffmpeg/refs/ffmpeg-armv7/lib/libswscale.a(rgb2rgb.o)
yv12touyvy          0x4               /home/chris/work/ffmpeg/refs/ffmpeg-armv7/lib/libswscale.a(rgb2rgb.o)
yv12toyuy2          0x4               /home/chris/work/ffmpeg/refs/ffmpeg-armv7/lib/libswscale.a(rgb2rgb.o)
yvu9_to_yuy2        0x4               /home/chris/work/ffmpeg/refs/ffmpeg-armv7/lib/libswscale.a(rgb2rgb.o)

Discarded input sections

 .note.GNU-stack
                0x00000000        0x0 /home/chris/work/android/android-ndk-r8d/platforms/android-14/arch-arm/usr/lib/crtbegin_so.o
 .note.GNU-stack
                0x00000000        0x0 ./obj/local/armeabi/objs/xplayer/com_chris_yanlong_XPlayer.o
 .note.GNU-stack
                0x00000000        0x0 ./obj/local/armeabi/objs/xplayer/packet_queue.o
 .note.GNU-stack
                0x00000000        0x0 ./obj/local/armeabi/objs/xplayer/decode_audio.o
 .note.GNU-stack
                0x00000000        0x0 ./obj/local/armeabi/objs/xplayer/opensl_audio_play.o
 .note.GNU-stack
                0x00000000        0x0 ./obj/local/armeabi/objs/xplayer/decode_video.o
 .note.GNU-stack
                0x00000000        0x0 ./obj/local/armeabi/objs/xplayer/opengl_video_play.o
 .note.GNU-stack
                0x00000000        0x0 ./obj/local/armeabi/objs/xplayer/picture_queue.o
 .note.GNU-stack
                0x00000000        0x0 ./obj/local/armeabi/objs/xplayer/xplayer.o
 .note.GNU-stack
                0x00000000        0x0 /home/chris/work/ffmpeg/refs/ffmpeg-armv7/lib/libavformat.a(allformats.o)
 .note.GNU-stack
                0x00000000        0x0 /home/chris/work/ffmpeg/refs/ffmpeg-armv7/lib/libavformat.a(avio.o)
 .note.GNU-stack
                0x00000000        0x0 /home/chris/work/ffmpeg/refs/ffmpeg-armv7/lib/libavformat.a(file.o)
 .note.GNU-stack
                0x00000000        0x0 /home/chris/work/ffmpeg/refs/ffmpeg-armv7/lib/libavformat.a(flvdec.o)
 .note.GNU-stack
                0x00000000        0x0 /home/chris/work/ffmpeg/refs/ffmpeg-armv7/lib/libavformat.a(hls.o)
 .note.GNU-stack
                0x00000000        0x0 /home/chris/work/ffmpeg/refs/ffmpeg-armv7/lib/libavformat.a(hlsproto.o)
 .note.GNU-stack
                0x00000000        0x0 /home/chris/work/ffmpeg/refs/ffmpeg-armv7/lib/libavformat.a(http.o)
 .note.GNU-stack
                0x00000000        0x0 /home/chris/work/ffmpeg/refs/ffmpeg-armv7/lib/libavformat.a(httpauth.o)
 .note.GNU-stack
                0x00000000        0x0 /home/chris/work/ffmpeg/refs/ffmpeg-armv7/lib/libavformat.a(mov.o)
 .note.GNU-stack
                0x00000000        0x0 /home/chris/work/ffmpeg/refs/ffmpeg-armv7/lib/libavformat.a(mov_chan.o)
 .note.GNU-stack
                0x00000000        0x0 /home/chris/work/ffmpeg/refs/ffmpeg-armv7/lib/libavformat.a(mpeg.o)
 .note.GNU-stack
                0x00000000        0x0 /home/chris/work/ffmpeg/refs/ffmpeg-armv7/lib/libavformat.a(mpegts.o)
 .note.GNU-stack
                0x00000000        0x0 /home/chris/work/ffmpeg/refs/ffmpeg-armv7/lib/libavformat.a(mpegvideodec.o)
 .note.GNU-stack
                0x00000000        0x0 /home/chris/work/ffmpeg/refs/ffmpeg-armv7/lib/libavformat.a(network.o)
 .note.GNU-stack
                0x00000000        0x0 /home/chris/work/ffmpeg/refs/ffmpeg-armv7/lib/libavformat.a(options.o)
 .note.GNU-stack
                0x00000000        0x0 /home/chris/work/ffmpeg/refs/ffmpeg-armv7/lib/libavformat.a(rawdec.o)
 .note.GNU-stack
                0x00000000        0x0 /home/chris/work/ffmpeg/refs/ffmpeg-armv7/lib/libavformat.a(riff.o)
 .note.GNU-stack
                0x00000000        0x0 /home/chris/work/ffmpeg/refs/ffmpeg-armv7/lib/libavformat.a(tcp.o)
 .note.GNU-stack
                0x00000000        0x0 /home/chris/work/ffmpeg/refs/ffmpeg-armv7/lib/libavformat.a(urldecode.o)
 .note.GNU-stack
                0x00000000        0x0 /home/chris/work/ffmpeg/refs/ffmpeg-armv7/lib/libavformat.a(utils.o)
 .note.GNU-stack
                0x00000000        0x0 /home/chris/work/ffmpeg/refs/ffmpeg-armv7/lib/libavformat.a(aviobuf.o)
 .note.GNU-stack
                0x00000000        0x0 /home/chris/work/ffmpeg/refs/ffmpeg-armv7/lib/libavformat.a(id3v1.o)
 .note.GNU-stack
                0x00000000        0x0 /home/chris/work/ffmpeg/refs/ffmpeg-armv7/lib/libavformat.a(id3v2.o)
 .note.GNU-stack
                0x00000000        0x0 /home/chris/work/ffmpeg/refs/ffmpeg-armv7/lib/libavformat.a(isom.o)
 .note.GNU-stack
                0x00000000        0x0 /home/chris/work/ffmpeg/refs/ffmpeg-armv7/lib/libavformat.a(metadata.o)
 .note.GNU-stack
                0x00000000        0x0 /home/chris/work/ffmpeg/refs/ffmpeg-armv7/lib/libavformat.a(mux.o)
 .note.GNU-stack
                0x00000000        0x0 /home/chris/work/ffmpeg/refs/ffmpeg-armv7/lib/libavformat.a(os_support.o)
 .note.GNU-stack
                0x00000000        0x0 /home/chris/work/ffmpeg/refs/ffmpeg-armv7/lib/libavcodec.a(ac3tab.o)
 .note.GNU-stack
                0x00000000        0x0 /home/chris/work/ffmpeg/refs/ffmpeg-armv7/lib/libavcodec.a(allcodecs.o)
 .note.GNU-stack
                0x00000000        0x0 /home/chris/work/ffmpeg/refs/ffmpeg-armv7/lib/libavcodec.a(avpacket.o)
 .note.GNU-stack
                0x00000000        0x0 /home/chris/work/ffmpeg/refs/ffmpeg-armv7/lib/libavcodec.a(avpicture.o)
 .note.GNU-stack
                0x00000000        0x0 /home/chris/work/ffmpeg/refs/ffmpeg-armv7/lib/libavcodec.a(bitstream_filter.o)
 .note.GNU-stack
                0x00000000        0x0 /home/chris/work/ffmpeg/refs/ffmpeg-armv7/lib/libavcodec.a(chomp_bsf.o)
 .note.GNU-stack
                0x00000000        0x0 /home/chris/work/ffmpeg/refs/ffmpeg-armv7/lib/libavcodec.a(codec_desc.o)
 .note.GNU-stack
                0x00000000        0x0 /home/chris/work/ffmpeg/refs/ffmpeg-armv7/lib/libavcodec.a(dump_extradata_bsf.o)
 .note.GNU-stack
                0x00000000        0x0 /home/chris/work/ffmpeg/refs/ffmpeg-armv7/lib/libavcodec.a(h263_parser.o)
 .note.GNU-stack
                0x00000000        0x0 /home/chris/work/ffmpeg/refs/ffmpeg-armv7/lib/libavcodec.a(h263dec.o)
 .note.GNU-stack
                0x00000000        0x0 /home/chris/work/ffmpeg/refs/ffmpeg-armv7/lib/libavcodec.a(h264.o)
 .note.GNU-stack
                0x00000000        0x0 /home/chris/work/ffmpeg/refs/ffmpeg-armv7/lib/libavcodec.a(h264_cabac.o)
 .note.GNU-stack
                0x00000000        0x0 /home/chris/work/ffmpeg/refs/ffmpeg-armv7/lib/libavcodec.a(h264_cavlc.o)
 .note.GNU-stack
                0x00000000        0x0 /home/chris/work/ffmpeg/refs/ffmpeg-armv7/lib/libavcodec.a(h264_direct.o)
 .note.GNU-stack
                0x00000000        0x0 /home/chris/work/ffmpeg/refs/ffmpeg-armv7/lib/libavcodec.a(h264_loopfilter.o)
 .note.GNU-stack
                0x00000000        0x0 /home/chris/work/ffmpeg/refs/ffmpeg-armv7/lib/libavcodec.a(h264_mp4toannexb_bsf.o)
 .note.GNU-stack
                0x00000000        0x0 /home/chris/work/ffmpeg/refs/ffmpeg-armv7/lib/libavcodec.a(h264_parser.o)
 .note.GNU-stack
                0x00000000        0x0 /home/chris/work/ffmpeg/refs/ffmpeg-armv7/lib/libavcodec.a(h264_ps.o)
 .note.GNU-stack
                0x00000000        0x0 /home/chris/work/ffmpeg/refs/ffmpeg-armv7/lib/libavcodec.a(h264_refs.o)
 .note.GNU-stack
                0x00000000        0x0 /home/chris/work/ffmpeg/refs/ffmpeg-armv7/lib/libavcodec.a(h264_sei.o)
 .note.GNU-stack
                0x00000000        0x0 /home/chris/work/ffmpeg/refs/ffmpeg-armv7/lib/libavcodec.a(h264chroma.o)
 .note.GNU-stack
                0x00000000        0x0 /home/chris/work/ffmpeg/refs/ffmpeg-armv7/lib/libavcodec.a(h264dsp.o)
 .note.GNU-stack
                0x00000000        0x0 /home/chris/work/ffmpeg/refs/ffmpeg-armv7/lib/libavcodec.a(h264idct.o)
 .note.GNU-stack
                0x00000000        0x0 /home/chris/work/ffmpeg/refs/ffmpeg-armv7/lib/libavcodec.a(h264pred.o)
 .note.GNU-stack
                0x00000000        0x0 /home/chris/work/ffmpeg/refs/ffmpeg-armv7/lib/libavcodec.a(h264qpel.o)
 .note.GNU-stack
                0x00000000        0x0 /home/chris/work/ffmpeg/refs/ffmpeg-armv7/lib/libavcodec.a(imx_dump_header_bsf.o)
 .note.GNU-stack
                0x00000000        0x0 /home/chris/work/ffmpeg/refs/ffmpeg-armv7/lib/libavcodec.a(ituh263dec.o)
 .note.GNU-stack
                0x00000000        0x0 /home/chris/work/ffmpeg/refs/ffmpeg-armv7/lib/libavcodec.a(mathtables.o)
 .note.GNU-stack
                0x00000000        0x0 /home/chris/work/ffmpeg/refs/ffmpeg-armv7/lib/libavcodec.a(mjpeg2jpeg_bsf.o)
 .note.GNU-stack
                0x00000000        0x0 /home/chris/work/ffmpeg/refs/ffmpeg-armv7/lib/libavcodec.a(mjpega_dump_header_bsf.o)
 .note.GNU-stack
                0x00000000        0x0 /home/chris/work/ffmpeg/refs/ffmpeg-armv7/lib/libavcodec.a(movsub_bsf.o)
 .note.GNU-stack
                0x00000000        0x0 /home/chris/work/ffmpeg/refs/ffmpeg-armv7/lib/libavcodec.a(mp3_header_compress_bsf.o)
 .note.GNU-stack
                0x00000000        0x0 /home/chris/work/ffmpeg/refs/ffmpeg-armv7/lib/libavcodec.a(mp3_header_decompress_bsf.o)
 .note.GNU-stack
                0x00000000        0x0 /home/chris/work/ffmpeg/refs/ffmpeg-armv7/lib/libavcodec.a(mpeg12.o)
 .note.GNU-stack
                0x00000000        0x0 /home/chris/work/ffmpeg/refs/ffmpeg-armv7/lib/libavcodec.a(mpeg12data.o)
 .note.GNU-stack
                0x00000000        0x0 /home/chris/work/ffmpeg/refs/ffmpeg-armv7/lib/libavcodec.a(mpeg4audio.o)
 .note.GNU-stack
                0x00000000        0x0 /home/chris/work/ffmpeg/refs/ffmpeg-armv7/lib/libavcodec.a(mpeg4video.o)
 .note.GNU-stack
                0x00000000        0x0 /home/chris/work/ffmpeg/refs/ffmpeg-armv7/lib/libavcodec.a(mpeg4video_parser.o)
 .note.GNU-stack
                0x00000000        0x0 /home/chris/work/ffmpeg/refs/ffmpeg-armv7/lib/libavcodec.a(mpeg4videodec.o)
 .note.GNU-stack
                0x00000000        0x0 /home/chris/work/ffmpeg/refs/ffmpeg-armv7/lib/libavcodec.a(mpegaudiodata.o)
 .note.GNU-stack
                0x00000000        0x0 /home/chris/work/ffmpeg/refs/ffmpeg-armv7/lib/libavcodec.a(mpegaudiodec.o)
 .note.GNU-stack
                0x00000000        0x0 /home/chris/work/ffmpeg/refs/ffmpeg-armv7/lib/libavcodec.a(mpegaudiodecheader.o)
 .note.GNU-stack
                0x00000000        0x0 /home/chris/work/ffmpeg/refs/ffmpeg-armv7/lib/libavcodec.a(mpegaudiodsp.o)
 .note.GNU-stack
                0x00000000        0x0 /home/chris/work/ffmpeg/refs/ffmpeg-armv7/lib/libavcodec.a(mpegaudiodsp_fixed.o)
 .note.GNU-stack
                0x00000000        0x0 /home/chris/work/ffmpeg/refs/ffmpeg-armv7/lib/libavcodec.a(mpegaudiodsp_float.o)
 .note.GNU-stack
                0x00000000        0x0 /home/chris/work/ffmpeg/refs/ffmpeg-armv7/lib/libavcodec.a(mpegvideo.o)
 .note.GNU-stack
                0x00000000        0x0 /home/chris/work/ffmpeg/refs/ffmpeg-armv7/lib/libavcodec.a(mpegvideo_motion.o)
 .note.GNU-stack
                0x00000000        0x0 /home/chris/work/ffmpeg/refs/ffmpeg-armv7/lib/libavcodec.a(noise_bsf.o)
 .note.GNU-stack
                0x00000000        0x0 /home/chris/work/ffmpeg/refs/ffmpeg-armv7/lib/libavcodec.a(options.o)
 .note.GNU-stack
                0x00000000        0x0 /home/chris/work/ffmpeg/refs/ffmpeg-armv7/lib/libavcodec.a(parser.o)
 .note.GNU-stack
                0x00000000        0x0 /home/chris/work/ffmpeg/refs/ffmpeg-armv7/lib/libavcodec.a(raw.o)
 .note.GNU-stack
                0x00000000        0x0 /home/chris/work/ffmpeg/refs/ffmpeg-armv7/lib/libavcodec.a(rawdec.o)
 .note.GNU-stack
                0x00000000        0x0 /home/chris/work/ffmpeg/refs/ffmpeg-armv7/lib/libavcodec.a(remove_extradata_bsf.o)
 .note.GNU-stack
                0x00000000        0x0 /home/chris/work/ffmpeg/refs/ffmpeg-armv7/lib/libavcodec.a(utils.o)
 .note.GNU-stack
                0x00000000        0x0 /home/chris/work/ffmpeg/refs/ffmpeg-armv7/lib/libavcodec.a(videodsp.o)
 .note.GNU-stack
                0x00000000        0x0 /home/chris/work/ffmpeg/refs/ffmpeg-armv7/lib/libavcodec.a(aac_adtstoasc_bsf.o)
 .note.GNU-stack
                0x00000000        0x0 /home/chris/work/ffmpeg/refs/ffmpeg-armv7/lib/libavcodec.a(aac_parser.o)
 .note.GNU-stack
                0x00000000        0x0 /home/chris/work/ffmpeg/refs/ffmpeg-armv7/lib/libavcodec.a(aacadtsdec.o)
 .note.GNU-stack
                0x00000000        0x0 /home/chris/work/ffmpeg/refs/ffmpeg-armv7/lib/libavcodec.a(aacdec.o)
 .note.GNU-stack
                0x00000000        0x0 /home/chris/work/ffmpeg/refs/ffmpeg-armv7/lib/libavcodec.a(aacsbr.o)
 .note.GNU-stack
                0x00000000        0x0 /home/chris/work/ffmpeg/refs/ffmpeg-armv7/lib/libavcodec.a(aactab.o)
 .note.GNU-stack
                0x00000000        0x0 /home/chris/work/ffmpeg/refs/ffmpeg-armv7/lib/libavcodec.a(ac3_parser.o)
 .note.GNU-stack
                0x00000000        0x0 /home/chris/work/ffmpeg/refs/ffmpeg-armv7/lib/libavcodec.a(ac3dec.o)
 .note.GNU-stack
                0x00000000        0x0 /home/chris/work/ffmpeg/refs/ffmpeg-armv7/lib/libavcodec.a(ac3dec_data.o)
 .note.GNU-stack
                0x00000000        0x0 /home/chris/work/ffmpeg/refs/ffmpeg-armv7/lib/libavcodec.a(ac3dsp.o)
 .note.GNU-stack
                0x00000000        0x0 /home/chris/work/ffmpeg/refs/ffmpeg-armv7/lib/libavcodec.a(ac3dsp_init_arm.o)
 .note.GNU-stack
                0x00000000        0x0 /home/chris/work/ffmpeg/refs/ffmpeg-armv7/lib/libavcodec.a(ac3dsp_neon.o)
 .note.GNU-stack
                0x00000000        0x0 /home/chris/work/ffmpeg/refs/ffmpeg-armv7/lib/libavcodec.a(h264chroma_init_arm.o)
 .note.GNU-stack
                0x00000000        0x0 /home/chris/work/ffmpeg/refs/ffmpeg-armv7/lib/libavcodec.a(h264cmc_neon.o)
 .note.GNU-stack
                0x00000000        0x0 /home/chris/work/ffmpeg/refs/ffmpeg-armv7/lib/libavcodec.a(h264dsp_init_arm.o)
 .note.GNU-stack
                0x00000000        0x0 /home/chris/work/ffmpeg/refs/ffmpeg-armv7/lib/libavcodec.a(h264dsp_neon.o)
 .note.GNU-stack
                0x00000000        0x0 /home/chris/work/ffmpeg/refs/ffmpeg-armv7/lib/libavcodec.a(h264idct_neon.o)
 .note.GNU-stack
                0x00000000        0x0 /home/chris/work/ffmpeg/refs/ffmpeg-armv7/lib/libavcodec.a(h264pred_init_arm.o)
 .note.GNU-stack
                0x00000000        0x0 /home/chris/work/ffmpeg/refs/ffmpeg-armv7/lib/libavcodec.a(h264pred_neon.o)
 .note.GNU-stack
                0x00000000        0x0 /home/chris/work/ffmpeg/refs/ffmpeg-armv7/lib/libavcodec.a(h264qpel_init_arm.o)
 .note.GNU-stack
                0x00000000        0x0 /home/chris/work/ffmpeg/refs/ffmpeg-armv7/lib/libavcodec.a(h264qpel_neon.o)
 .note.GNU-stack
                0x00000000        0x0 /home/chris/work/ffmpeg/refs/ffmpeg-armv7/lib/libavcodec.a(mpegaudiodsp_init_arm.o)
 .note.GNU-stack
                0x00000000        0x0 /home/chris/work/ffmpeg/refs/ffmpeg-armv7/lib/libavcodec.a(mpegvideo_arm.o)
 .note.GNU-stack
                0x00000000        0x0 /home/chris/work/ffmpeg/refs/ffmpeg-armv7/lib/libavcodec.a(mpegvideo_armv5te.o)
 .note.GNU-stack
                0x00000000        0x0 /home/chris/work/ffmpeg/refs/ffmpeg-armv7/lib/libavcodec.a(mpegvideo_armv5te_s.o)
 .note.GNU-stack
                0x00000000        0x0 /home/chris/work/ffmpeg/refs/ffmpeg-armv7/lib/libavcodec.a(mpegvideo_neon.o)
 .note.GNU-stack
                0x00000000        0x0 /home/chris/work/ffmpeg/refs/ffmpeg-armv7/lib/libavcodec.a(videodsp_init_arm.o)
 .note.GNU-stack
                0x00000000        0x0 /home/chris/work/ffmpeg/refs/ffmpeg-armv7/lib/libavcodec.a(videodsp_init_armv5te.o)
 .note.GNU-stack
                0x00000000        0x0 /home/chris/work/ffmpeg/refs/ffmpeg-armv7/lib/libavcodec.a(bitstream.o)
 .note.GNU-stack
                0x00000000        0x0 /home/chris/work/ffmpeg/refs/ffmpeg-armv7/lib/libavcodec.a(cabac.o)
 .note.GNU-stack
                0x00000000        0x0 /home/chris/work/ffmpeg/refs/ffmpeg-armv7/lib/libavcodec.a(dct.o)
 .note.GNU-stack
                0x00000000        0x0 /home/chris/work/ffmpeg/refs/ffmpeg-armv7/lib/libavcodec.a(dct32_fixed.o)
 .note.GNU-stack
                0x00000000        0x0 /home/chris/work/ffmpeg/refs/ffmpeg-armv7/lib/libavcodec.a(dct32_float.o)
 .note.GNU-stack
                0x00000000        0x0 /home/chris/work/ffmpeg/refs/ffmpeg-armv7/lib/libavcodec.a(dsputil.o)
 .note.GNU-stack
                0x00000000        0x0 /home/chris/work/ffmpeg/refs/ffmpeg-armv7/lib/libavcodec.a(error_resilience.o)
 .note.GNU-stack
                0x00000000        0x0 /home/chris/work/ffmpeg/refs/ffmpeg-armv7/lib/libavcodec.a(faanidct.o)
 .note.GNU-stack
                0x00000000        0x0 /home/chris/work/ffmpeg/refs/ffmpeg-armv7/lib/libavcodec.a(fft_float.o)
 .note.GNU-stack
                0x00000000        0x0 /home/chris/work/ffmpeg/refs/ffmpeg-armv7/lib/libavcodec.a(fmtconvert.o)
 .note.GNU-stack
                0x00000000        0x0 /home/chris/work/ffmpeg/refs/ffmpeg-armv7/lib/libavcodec.a(golomb.o)
 .note.GNU-stack
                0x00000000        0x0 /home/chris/work/ffmpeg/refs/ffmpeg-armv7/lib/libavcodec.a(h263.o)
 .note.GNU-stack
                0x00000000        0x0 /home/chris/work/ffmpeg/refs/ffmpeg-armv7/lib/libavcodec.a(imgconvert.o)
 .note.GNU-stack
                0x00000000        0x0 /home/chris/work/ffmpeg/refs/ffmpeg-armv7/lib/libavcodec.a(jrevdct.o)
 .note.GNU-stack
                0x00000000        0x0 /home/chris/work/ffmpeg/refs/ffmpeg-armv7/lib/libavcodec.a(kbdwin.o)
 .note.GNU-stack
                0x00000000        0x0 /home/chris/work/ffmpeg/refs/ffmpeg-armv7/lib/libavcodec.a(mdct_float.o)
 .note.GNU-stack
                0x00000000        0x0 /home/chris/work/ffmpeg/refs/ffmpeg-armv7/lib/libavcodec.a(mjpeg.o)
 .note.GNU-stack
                0x00000000        0x0 /home/chris/work/ffmpeg/refs/ffmpeg-armv7/lib/libavcodec.a(mpegaudio.o)
 .note.GNU-stack
                0x00000000        0x0 /home/chris/work/ffmpeg/refs/ffmpeg-armv7/lib/libavcodec.a(mpegaudiodsp_data.o)
 .note.GNU-stack
                0x00000000        0x0 /home/chris/work/ffmpeg/refs/ffmpeg-armv7/lib/libavcodec.a(rdft.o)
 .note.GNU-stack
                0x00000000        0x0 /home/chris/work/ffmpeg/refs/ffmpeg-armv7/lib/libavcodec.a(sbrdsp.o)
 .note.GNU-stack
                0x00000000        0x0 /home/chris/work/ffmpeg/refs/ffmpeg-armv7/lib/libavcodec.a(simple_idct.o)
 .note.GNU-stack
                0x00000000        0x0 /home/chris/work/ffmpeg/refs/ffmpeg-armv7/lib/libavcodec.a(sinewin.o)
 .note.GNU-stack
                0x00000000        0x0 /home/chris/work/ffmpeg/refs/ffmpeg-armv7/lib/libavcodec.a(aac_ac3_parser.o)
 .note.GNU-stack
                0x00000000        0x0 /home/chris/work/ffmpeg/refs/ffmpeg-armv7/lib/libavcodec.a(aacps.o)
 .note.GNU-stack
                0x00000000        0x0 /home/chris/work/ffmpeg/refs/ffmpeg-armv7/lib/libavcodec.a(aacpsdsp.o)
 .note.GNU-stack
                0x00000000        0x0 /home/chris/work/ffmpeg/refs/ffmpeg-armv7/lib/libavcodec.a(ac3.o)
 .note.GNU-stack
                0x00000000        0x0 /home/chris/work/ffmpeg/refs/ffmpeg-armv7/lib/libavcodec.a(aacpsdsp_init_arm.o)
 .note.GNU-stack
                0x00000000        0x0 /home/chris/work/ffmpeg/refs/ffmpeg-armv7/lib/libavcodec.a(aacpsdsp_neon.o)
 .note.GNU-stack
                0x00000000        0x0 /home/chris/work/ffmpeg/refs/ffmpeg-armv7/lib/libavcodec.a(ac3dsp_arm.o)
 .note.GNU-stack
                0x00000000        0x0 /home/chris/work/ffmpeg/refs/ffmpeg-armv7/lib/libavcodec.a(ac3dsp_armv6.o)
 .note.GNU-stack
                0x00000000        0x0 /home/chris/work/ffmpeg/refs/ffmpeg-armv7/lib/libavcodec.a(dsputil_init_arm.o)
 .note.GNU-stack
                0x00000000        0x0 /home/chris/work/ffmpeg/refs/ffmpeg-armv7/lib/libavcodec.a(dsputil_init_armv5te.o)
 .note.GNU-stack
                0x00000000        0x0 /home/chris/work/ffmpeg/refs/ffmpeg-armv7/lib/libavcodec.a(dsputil_init_armv6.o)
 .note.GNU-stack
                0x00000000        0x0 /home/chris/work/ffmpeg/refs/ffmpeg-armv7/lib/libavcodec.a(dsputil_init_neon.o)
 .note.GNU-stack
                0x00000000        0x0 /home/chris/work/ffmpeg/refs/ffmpeg-armv7/lib/libavcodec.a(dsputil_neon.o)
 .note.GNU-stack
                0x00000000        0x0 /home/chris/work/ffmpeg/refs/ffmpeg-armv7/lib/libavcodec.a(fft_init_arm.o)
 .note.GNU-stack
                0x00000000        0x0 /home/chris/work/ffmpeg/refs/ffmpeg-armv7/lib/libavcodec.a(fft_neon.o)
 .note.GNU-stack
                0x00000000        0x0 /home/chris/work/ffmpeg/refs/ffmpeg-armv7/lib/libavcodec.a(fmtconvert_init_arm.o)
 .note.GNU-stack
                0x00000000        0x0 /home/chris/work/ffmpeg/refs/ffmpeg-armv7/lib/libavcodec.a(fmtconvert_neon.o)
 .note.GNU-stack
                0x00000000        0x0 /home/chris/work/ffmpeg/refs/ffmpeg-armv7/lib/libavcodec.a(fmtconvert_vfp.o)
 .note.GNU-stack
                0x00000000        0x0 /home/chris/work/ffmpeg/refs/ffmpeg-armv7/lib/libavcodec.a(int_neon.o)
 .note.GNU-stack
                0x00000000        0x0 /home/chris/work/ffmpeg/refs/ffmpeg-armv7/lib/libavcodec.a(jrevdct_arm.o)
 .note.GNU-stack
                0x00000000        0x0 /home/chris/work/ffmpeg/refs/ffmpeg-armv7/lib/libavcodec.a(mdct_neon.o)
 .note.GNU-stack
                0x00000000        0x0 /home/chris/work/ffmpeg/refs/ffmpeg-armv7/lib/libavcodec.a(mpegaudiodsp_fixed_armv6.o)
 .note.GNU-stack
                0x00000000        0x0 /home/chris/work/ffmpeg/refs/ffmpeg-armv7/lib/libavcodec.a(rdft_neon.o)
 .note.GNU-stack
                0x00000000        0x0 /home/chris/work/ffmpeg/refs/ffmpeg-armv7/lib/libavcodec.a(sbrdsp_init_arm.o)
 .note.GNU-stack
                0x00000000        0x0 /home/chris/work/ffmpeg/refs/ffmpeg-armv7/lib/libavcodec.a(sbrdsp_neon.o)
 .note.GNU-stack
                0x00000000        0x0 /home/chris/work/ffmpeg/refs/ffmpeg-armv7/lib/libavcodec.a(simple_idct_arm.o)
 .note.GNU-stack
                0x00000000        0x0 /home/chris/work/ffmpeg/refs/ffmpeg-armv7/lib/libavcodec.a(simple_idct_armv5te.o)
 .note.GNU-stack
                0x00000000        0x0 /home/chris/work/ffmpeg/refs/ffmpeg-armv7/lib/libavcodec.a(simple_idct_armv6.o)
 .note.GNU-stack
                0x00000000        0x0 /home/chris/work/ffmpeg/refs/ffmpeg-armv7/lib/libavcodec.a(simple_idct_neon.o)
 .note.GNU-stack
                0x00000000        0x0 /home/chris/work/ffmpeg/refs/ffmpeg-armv7/lib/libavcodec.a(videodsp_armv5te.o)
 .note.GNU-stack
                0x00000000        0x0 /home/chris/work/ffmpeg/refs/ffmpeg-armv7/lib/libavcodec.a(dsputil_arm.o)
 .note.GNU-stack
                0x00000000        0x0 /home/chris/work/ffmpeg/refs/ffmpeg-armv7/lib/libavcodec.a(dsputil_armv6.o)
 .note.GNU-stack
                0x00000000        0x0 /home/chris/work/ffmpeg/refs/ffmpeg-armv7/lib/libswscale.a(swscale.o)
 .note.GNU-stack
                0x00000000        0x0 /home/chris/work/ffmpeg/refs/ffmpeg-armv7/lib/libswscale.a(utils.o)
 .note.GNU-stack
                0x00000000        0x0 /home/chris/work/ffmpeg/refs/ffmpeg-armv7/lib/libswscale.a(yuv2rgb.o)
 .note.GNU-stack
                0x00000000        0x0 /home/chris/work/ffmpeg/refs/ffmpeg-armv7/lib/libswscale.a(input.o)
 .note.GNU-stack
                0x00000000        0x0 /home/chris/work/ffmpeg/refs/ffmpeg-armv7/lib/libswscale.a(options.o)
 .note.GNU-stack
                0x00000000        0x0 /home/chris/work/ffmpeg/refs/ffmpeg-armv7/lib/libswscale.a(output.o)
 .note.GNU-stack
                0x00000000        0x0 /home/chris/work/ffmpeg/refs/ffmpeg-armv7/lib/libswscale.a(rgb2rgb.o)
 .note.GNU-stack
                0x00000000        0x0 /home/chris/work/ffmpeg/refs/ffmpeg-armv7/lib/libswscale.a(swscale_unscaled.o)
 .note.GNU-stack
                0x00000000        0x0 /home/chris/work/ffmpeg/refs/ffmpeg-armv7/lib/libswresample.a(swresample.o)
 .note.GNU-stack
                0x00000000        0x0 /home/chris/work/ffmpeg/refs/ffmpeg-armv7/lib/libswresample.a(audioconvert.o)
 .note.GNU-stack
                0x00000000        0x0 /home/chris/work/ffmpeg/refs/ffmpeg-armv7/lib/libswresample.a(dither.o)
 .note.GNU-stack
                0x00000000        0x0 /home/chris/work/ffmpeg/refs/ffmpeg-armv7/lib/libswresample.a(rematrix.o)
 .note.GNU-stack
                0x00000000        0x0 /home/chris/work/ffmpeg/refs/ffmpeg-armv7/lib/libswresample.a(resample.o)
 .note.GNU-stack
                0x00000000        0x0 /home/chris/work/ffmpeg/refs/ffmpeg-armv7/lib/libswresample.a(audio_convert_init.o)
 .note.GNU-stack
                0x00000000        0x0 /home/chris/work/ffmpeg/refs/ffmpeg-armv7/lib/libswresample.a(audio_convert_neon.o)
 .note.GNU-stack
                0x00000000        0x0 /home/chris/work/ffmpeg/refs/ffmpeg-armv7/lib/libavutil.a(avstring.o)
 .note.GNU-stack
                0x00000000        0x0 /home/chris/work/ffmpeg/refs/ffmpeg-armv7/lib/libavutil.a(base64.o)
 .note.GNU-stack
                0x00000000        0x0 /home/chris/work/ffmpeg/refs/ffmpeg-armv7/lib/libavutil.a(bprint.o)
 .note.GNU-stack
                0x00000000        0x0 /home/chris/work/ffmpeg/refs/ffmpeg-armv7/lib/libavutil.a(channel_layout.o)
 .note.GNU-stack
                0x00000000        0x0 /home/chris/work/ffmpeg/refs/ffmpeg-armv7/lib/libavutil.a(cpu.o)
 .note.GNU-stack
                0x00000000        0x0 /home/chris/work/ffmpeg/refs/ffmpeg-armv7/lib/libavutil.a(crc.o)
 .note.GNU-stack
                0x00000000        0x0 /home/chris/work/ffmpeg/refs/ffmpeg-armv7/lib/libavutil.a(dict.o)
 .note.GNU-stack
                0x00000000        0x0 /home/chris/work/ffmpeg/refs/ffmpeg-armv7/lib/libavutil.a(error.o)
 .note.GNU-stack
                0x00000000        0x0 /home/chris/work/ffmpeg/refs/ffmpeg-armv7/lib/libavutil.a(float_dsp.o)
 .note.GNU-stack
                0x00000000        0x0 /home/chris/work/ffmpeg/refs/ffmpeg-armv7/lib/libavutil.a(imgutils.o)
 .note.GNU-stack
                0x00000000        0x0 /home/chris/work/ffmpeg/refs/ffmpeg-armv7/lib/libavutil.a(lfg.o)
 .note.GNU-stack
                0x00000000        0x0 /home/chris/work/ffmpeg/refs/ffmpeg-armv7/lib/libavutil.a(log.o)
 .note.GNU-stack
                0x00000000        0x0 /home/chris/work/ffmpeg/refs/ffmpeg-armv7/lib/libavutil.a(log2_tab.o)
 .note.GNU-stack
                0x00000000        0x0 /home/chris/work/ffmpeg/refs/ffmpeg-armv7/lib/libavutil.a(mathematics.o)
 .note.GNU-stack
                0x00000000        0x0 /home/chris/work/ffmpeg/refs/ffmpeg-armv7/lib/libavutil.a(md5.o)
 .note.GNU-stack
                0x00000000        0x0 /home/chris/work/ffmpeg/refs/ffmpeg-armv7/lib/libavutil.a(mem.o)
 .note.GNU-stack
                0x00000000        0x0 /home/chris/work/ffmpeg/refs/ffmpeg-armv7/lib/libavutil.a(opt.o)
 .note.GNU-stack
                0x00000000        0x0 /home/chris/work/ffmpeg/refs/ffmpeg-armv7/lib/libavutil.a(parseutils.o)
 .note.GNU-stack
                0x00000000        0x0 /home/chris/work/ffmpeg/refs/ffmpeg-armv7/lib/libavutil.a(pixdesc.o)
 .note.GNU-stack
                0x00000000        0x0 /home/chris/work/ffmpeg/refs/ffmpeg-armv7/lib/libavutil.a(random_seed.o)
 .note.GNU-stack
                0x00000000        0x0 /home/chris/work/ffmpeg/refs/ffmpeg-armv7/lib/libavutil.a(rational.o)
 .note.GNU-stack
                0x00000000        0x0 /home/chris/work/ffmpeg/refs/ffmpeg-armv7/lib/libavutil.a(samplefmt.o)
 .note.GNU-stack
                0x00000000        0x0 /home/chris/work/ffmpeg/refs/ffmpeg-armv7/lib/libavutil.a(sha.o)
 .note.GNU-stack
                0x00000000        0x0 /home/chris/work/ffmpeg/refs/ffmpeg-armv7/lib/libavutil.a(time.o)
 .note.GNU-stack
                0x00000000        0x0 /home/chris/work/ffmpeg/refs/ffmpeg-armv7/lib/libavutil.a(timecode.o)
 .note.GNU-stack
                0x00000000        0x0 /home/chris/work/ffmpeg/refs/ffmpeg-armv7/lib/libavutil.a(utils.o)
 .note.GNU-stack
                0x00000000        0x0 /home/chris/work/ffmpeg/refs/ffmpeg-armv7/lib/libavutil.a(cpu.o)
 .note.GNU-stack
                0x00000000        0x0 /home/chris/work/ffmpeg/refs/ffmpeg-armv7/lib/libavutil.a(float_dsp_init_arm.o)
 .note.GNU-stack
                0x00000000        0x0 /home/chris/work/ffmpeg/refs/ffmpeg-armv7/lib/libavutil.a(float_dsp_init_neon.o)
 .note.GNU-stack
                0x00000000        0x0 /home/chris/work/ffmpeg/refs/ffmpeg-armv7/lib/libavutil.a(float_dsp_init_vfp.o)
 .note.GNU-stack
                0x00000000        0x0 /home/chris/work/ffmpeg/refs/ffmpeg-armv7/lib/libavutil.a(float_dsp_neon.o)
 .note.GNU-stack
                0x00000000        0x0 /home/chris/work/ffmpeg/refs/ffmpeg-armv7/lib/libavutil.a(float_dsp_vfp.o)
 .note.GNU-stack
                0x00000000        0x0 /home/chris/work/ffmpeg/refs/ffmpeg-armv7/lib/libavutil.a(eval.o)
 .note.GNU-stack
                0x00000000        0x0 /home/chris/work/android/android-ndk-r8d/toolchains/arm-linux-androideabi-4.6/prebuilt/linux-x86/bin/../lib/gcc/arm-linux-androideabi/4.6/libgcc.a(_udivsi3.o)
 .note.GNU-stack
                0x00000000        0x0 /home/chris/work/android/android-ndk-r8d/toolchains/arm-linux-androideabi-4.6/prebuilt/linux-x86/bin/../lib/gcc/arm-linux-androideabi/4.6/libgcc.a(_divsi3.o)
 .note.GNU-stack
                0x00000000        0x0 /home/chris/work/android/android-ndk-r8d/toolchains/arm-linux-androideabi-4.6/prebuilt/linux-x86/bin/../lib/gcc/arm-linux-androideabi/4.6/libgcc.a(_lshrdi3.o)
 .note.GNU-stack
                0x00000000        0x0 /home/chris/work/android/android-ndk-r8d/toolchains/arm-linux-androideabi-4.6/prebuilt/linux-x86/bin/../lib/gcc/arm-linux-androideabi/4.6/libgcc.a(_ashldi3.o)
 .note.GNU-stack
                0x00000000        0x0 /home/chris/work/android/android-ndk-r8d/toolchains/arm-linux-androideabi-4.6/prebuilt/linux-x86/bin/../lib/gcc/arm-linux-androideabi/4.6/libgcc.a(_arm_addsubdf3.o)
 .note.GNU-stack
                0x00000000        0x0 /home/chris/work/android/android-ndk-r8d/toolchains/arm-linux-androideabi-4.6/prebuilt/linux-x86/bin/../lib/gcc/arm-linux-androideabi/4.6/libgcc.a(_arm_muldivdf3.o)
 .note.GNU-stack
                0x00000000        0x0 /home/chris/work/android/android-ndk-r8d/toolchains/arm-linux-androideabi-4.6/prebuilt/linux-x86/bin/../lib/gcc/arm-linux-androideabi/4.6/libgcc.a(_arm_cmpdf2.o)
 .note.GNU-stack
                0x00000000        0x0 /home/chris/work/android/android-ndk-r8d/toolchains/arm-linux-androideabi-4.6/prebuilt/linux-x86/bin/../lib/gcc/arm-linux-androideabi/4.6/libgcc.a(_arm_fixunsdfsi.o)
 .note.GNU-stack
                0x00000000        0x0 /home/chris/work/android/android-ndk-r8d/toolchains/arm-linux-androideabi-4.6/prebuilt/linux-x86/bin/../lib/gcc/arm-linux-androideabi/4.6/libgcc.a(_arm_addsubsf3.o)
 .note.GNU-stack
                0x00000000        0x0 /home/chris/work/android/android-ndk-r8d/toolchains/arm-linux-androideabi-4.6/prebuilt/linux-x86/bin/../lib/gcc/arm-linux-androideabi/4.6/libgcc.a(_aeabi_ldivmod.o)
 .note.GNU-stack
                0x00000000        0x0 /home/chris/work/android/android-ndk-r8d/toolchains/arm-linux-androideabi-4.6/prebuilt/linux-x86/bin/../lib/gcc/arm-linux-androideabi/4.6/libgcc.a(_aeabi_uldivmod.o)
 .note.GNU-stack
                0x00000000        0x0 /home/chris/work/android/android-ndk-r8d/toolchains/arm-linux-androideabi-4.6/prebuilt/linux-x86/bin/../lib/gcc/arm-linux-androideabi/4.6/libgcc.a(_dvmd_lnx.o)
 .note.GNU-stack
                0x00000000        0x0 /home/chris/work/android/android-ndk-r8d/toolchains/arm-linux-androideabi-4.6/prebuilt/linux-x86/bin/../lib/gcc/arm-linux-androideabi/4.6/libgcc.a(_fixdfdi.o)
 .note.GNU-stack
                0x00000000        0x0 /home/chris/work/android/android-ndk-r8d/toolchains/arm-linux-androideabi-4.6/prebuilt/linux-x86/bin/../lib/gcc/arm-linux-androideabi/4.6/libgcc.a(_fixunsdfdi.o)
 .note.GNU-stack
                0x00000000        0x0 /home/chris/work/android/android-ndk-r8d/toolchains/arm-linux-androideabi-4.6/prebuilt/linux-x86/bin/../lib/gcc/arm-linux-androideabi/4.6/libgcc.a(bpabi.o)
 .note.GNU-stack
                0x00000000        0x0 /home/chris/work/android/android-ndk-r8d/toolchains/arm-linux-androideabi-4.6/prebuilt/linux-x86/bin/../lib/gcc/arm-linux-androideabi/4.6/libgcc.a(unwind-arm.o)
 .note.GNU-stack
                0x00000000        0x0 /home/chris/work/android/android-ndk-r8d/toolchains/arm-linux-androideabi-4.6/prebuilt/linux-x86/bin/../lib/gcc/arm-linux-androideabi/4.6/libgcc.a(libunwind.o)
 .note.GNU-stack
                0x00000000        0x0 /home/chris/work/android/android-ndk-r8d/toolchains/arm-linux-androideabi-4.6/prebuilt/linux-x86/bin/../lib/gcc/arm-linux-androideabi/4.6/libgcc.a(pr-support.o)
 .note.GNU-stack
                0x00000000        0x0 /home/chris/work/android/android-ndk-r8d/toolchains/arm-linux-androideabi-4.6/prebuilt/linux-x86/bin/../lib/gcc/arm-linux-androideabi/4.6/libgcc.a(_divdi3.o)
 .note.GNU-stack
                0x00000000        0x0 /home/chris/work/android/android-ndk-r8d/toolchains/arm-linux-androideabi-4.6/prebuilt/linux-x86/bin/../lib/gcc/arm-linux-androideabi/4.6/libgcc.a(_udivdi3.o)
 .note.GNU-stack
                0x00000000        0x0 /home/chris/work/android/android-ndk-r8d/platforms/android-14/arch-arm/usr/lib/crtend_so.o

Memory map

 ** file header
                0x00000000       0x34
 ** segment headers
                0x00000034       0xe0

.dynsym         0x00000114     0x7610
 ** dynsym      0x00000114     0x7610

.dynstr         0x00007724     0x9129
 ** string table
                0x00007724     0x9129

.hash           0x00010850     0x2da8
 ** hash        0x00010850     0x2da8

.rel.dyn        0x000135f8     0x7e70
 ** dynamic relocs
                0x000135f8     0x7e70

.rel.plt        0x0001b468      0x408
 ** dynamic relocs
                0x0001b468      0x408

.plt            0x0001b870      0x620
 ** PLT         0x0001b870      0x620

.text           0x0001bec0   0x20a990
 .text          0x0001bec0       0x14 /home/chris/work/android/android-ndk-r8d/platforms/android-14/arch-arm/usr/lib/crtbegin_so.o
                0x0001bec0                atexit
 .text.exit     0x0001bed4       0x10 /home/chris/work/android/android-ndk-r8d/platforms/android-14/arch-arm/usr/lib/crtbegin_so.o
                0x0001bed4                __on_dlclose
 .text          0x0001bee4        0x0 ./obj/local/armeabi/objs/xplayer/com_chris_yanlong_XPlayer.o
 .text.Java_com_chris_yanlong_XPlayer_initVideoPlayer
                0x0001bee4       0x4c ./obj/local/armeabi/objs/xplayer/com_chris_yanlong_XPlayer.o
                0x0001bee5                Java_com_chris_yanlong_XPlayer_initVideoPlayer
 .text.Java_com_chris_yanlong_XPlayer_play
                0x0001bf30        0xc ./obj/local/armeabi/objs/xplayer/com_chris_yanlong_XPlayer.o
                0x0001bf31                Java_com_chris_yanlong_XPlayer_play
 .text.Java_com_chris_yanlong_XPlayer_stopVideoPlayer
                0x0001bf3c        0xc ./obj/local/armeabi/objs/xplayer/com_chris_yanlong_XPlayer.o
                0x0001bf3d                Java_com_chris_yanlong_XPlayer_stopVideoPlayer
 .text.Java_com_chris_yanlong_XPlayer_initOpenGL
                0x0001bf48        0x8 ./obj/local/armeabi/objs/xplayer/com_chris_yanlong_XPlayer.o
                0x0001bf49                Java_com_chris_yanlong_XPlayer_initOpenGL
 .text.Java_com_chris_yanlong_XPlayer_openGLResize
                0x0001bf50       0x10 ./obj/local/armeabi/objs/xplayer/com_chris_yanlong_XPlayer.o
                0x0001bf51                Java_com_chris_yanlong_XPlayer_openGLResize
 .text.Java_com_chris_yanlong_XPlayer_openGLRend
                0x0001bf60        0x8 ./obj/local/armeabi/objs/xplayer/com_chris_yanlong_XPlayer.o
                0x0001bf61                Java_com_chris_yanlong_XPlayer_openGLRend
 .text          0x0001bf68        0x0 ./obj/local/armeabi/objs/xplayer/packet_queue.o
 .text.packet_queue_init
                0x0001bf68       0x2e ./obj/local/armeabi/objs/xplayer/packet_queue.o
                0x0001bf69                packet_queue_init
 .text.packet_queue_put
                0x0001bf98       0xb4 ./obj/local/armeabi/objs/xplayer/packet_queue.o
                0x0001bf99                packet_queue_put
 .text.packet_queue_get
                0x0001c04c       0xb0 ./obj/local/armeabi/objs/xplayer/packet_queue.o
                0x0001c04d                packet_queue_get
 .text.empty_queue
                0x0001c0fc       0x42 ./obj/local/armeabi/objs/xplayer/packet_queue.o
                0x0001c0fd                empty_queue
 .text          0x0001c13e        0x0 ./obj/local/armeabi/objs/xplayer/decode_audio.o
 .text.init_decode_audio
                0x0001c140      0x10c ./obj/local/armeabi/objs/xplayer/decode_audio.o
                0x0001c141                init_decode_audio
 .text.decode_audio
                0x0001c250      0x2d8 ./obj/local/armeabi/objs/xplayer/decode_audio.o
                0x0001c251                decode_audio
 .text          0x0001c528        0x0 ./obj/local/armeabi/objs/xplayer/opensl_audio_play.o
 .text.bqPlayerCallback
                0x0001c528       0xb0 ./obj/local/armeabi/objs/xplayer/opensl_audio_play.o
                0x0001c529                bqPlayerCallback
 .text.createEngine
                0x0001c5d8       0x70 ./obj/local/armeabi/objs/xplayer/opensl_audio_play.o
                0x0001c5d9                createEngine
 .text.createBufferQueueAudioPlayer
                0x0001c648      0x114 ./obj/local/armeabi/objs/xplayer/opensl_audio_play.o
                0x0001c649                createBufferQueueAudioPlayer
 .text.opensl_play_audio
                0x0001c75c       0x80 ./obj/local/armeabi/objs/xplayer/opensl_audio_play.o
                0x0001c75d                opensl_play_audio
 .text          0x0001c7dc        0x0 ./obj/local/armeabi/objs/xplayer/decode_video.o
 .text.init_decode_video
                0x0001c7dc      0x1f4 ./obj/local/armeabi/objs/xplayer/decode_video.o
                0x0001c7dd                init_decode_video
 .text.decode_video
                0x0001c9d0      0x228 ./obj/local/armeabi/objs/xplayer/decode_video.o
                0x0001c9d1                decode_video
 .text          0x0001cbf8        0x0 ./obj/local/armeabi/objs/xplayer/opengl_video_play.o
 .text.check_gl_error
                0x0001cbf8       0x30 ./obj/local/armeabi/objs/xplayer/opengl_video_play.o
 .text.opengl_resize
                0x0001cc28      0x11c ./obj/local/armeabi/objs/xplayer/opengl_video_play.o
                0x0001cc29                opengl_resize
 .text.opengl_render
                0x0001cd48      0x220 ./obj/local/armeabi/objs/xplayer/opengl_video_play.o
                0x0001cd49                opengl_render
 .text.opengl_start
                0x0001cf68       0xfc ./obj/local/armeabi/objs/xplayer/opengl_video_play.o
                0x0001cf69                opengl_start
 .text.init_opengl_variable
                0x0001d064       0x74 ./obj/local/armeabi/objs/xplayer/opengl_video_play.o
                0x0001d065                init_opengl_variable
 .text          0x0001d0d8        0x0 ./obj/local/armeabi/objs/xplayer/picture_queue.o
 .text.frame_queue_init
                0x0001d0d8       0x64 ./obj/local/armeabi/objs/xplayer/picture_queue.o
                0x0001d0d9                frame_queue_init
 .text.frame_queue_put
                0x0001d13c       0x68 ./obj/local/armeabi/objs/xplayer/picture_queue.o
                0x0001d13d                frame_queue_put
 .text.frame_queue_get
                0x0001d1a4       0x9c ./obj/local/armeabi/objs/xplayer/picture_queue.o
                0x0001d1a5                frame_queue_get
 .text          0x0001d240        0x0 ./obj/local/armeabi/objs/xplayer/xplayer.o
 .text.interrupt_cb
                0x0001d240       0x28 ./obj/local/armeabi/objs/xplayer/xplayer.o
 .text.play_video_thread
                0x0001d268        0x8 ./obj/local/armeabi/objs/xplayer/xplayer.o
                0x0001d269                play_video_thread
 .text.decode_video_packt_thread
                0x0001d270       0x6c ./obj/local/armeabi/objs/xplayer/xplayer.o
                0x0001d271                decode_video_packt_thread
 .text.play_audio_thread
                0x0001d2dc       0x50 ./obj/local/armeabi/objs/xplayer/xplayer.o
                0x0001d2dd                play_audio_thread
 .text.init_media
                0x0001d32c      0x264 ./obj/local/armeabi/objs/xplayer/xplayer.o
                0x0001d32d                init_media
 .text.read_thread
                0x0001d590      0x13c ./obj/local/armeabi/objs/xplayer/xplayer.o
                0x0001d591                read_thread
 .text.read_data_thread
                0x0001d6cc       0x4c ./obj/local/armeabi/objs/xplayer/xplayer.o
                0x0001d6cd                read_data_thread
 .text.xplayer_play
                0x0001d718       0x60 ./obj/local/armeabi/objs/xplayer/xplayer.o
                0x0001d719                xplayer_play
 .text.player_stop
                0x0001d778       0x70 ./obj/local/armeabi/objs/xplayer/xplayer.o
                0x0001d779                player_stop
 .text          0x0001d7e8       0xfc /home/chris/work/ffmpeg/refs/ffmpeg-armv7/lib/libavformat.a(allformats.o)
                0x0001d7e8                av_register_all
 .text          0x0001d8e8      0xe18 /home/chris/work/ffmpeg/refs/ffmpeg-armv7/lib/libavformat.a(avio.o)
                0x0001dc38                ffurl_protocol_next
                0x0001dcb4                avio_enum_protocols
                0x0001dd1c                ffurl_register_protocol
                0x0001dd8c                ffurl_alloc
                0x0001df14                ffurl_seek
                0x0001df4c                ffurl_connect
                0x0001e01c                ffurl_closep
                0x0001e0b0                ffurl_close
                0x0001e0d0                ffurl_open
                0x0001e144                avio_check
                0x0001e1bc                ffurl_size
                0x0001e280                ffurl_get_file_handle
                0x0001e2a4                ffurl_get_multi_file_handle
                0x0001e324                ffurl_shutdown
                0x0001e348                ff_check_interrupt
                0x0001e374                ffurl_read
                0x0001e490                ffurl_write
                0x0001e5d0                ffurl_read_complete
 .text          0x0001e700      0x274 /home/chris/work/ffmpeg/refs/ffmpeg-armv7/lib/libavformat.a(file.o)
 .text          0x0001e978     0x21c0 /home/chris/work/ffmpeg/refs/ffmpeg-armv7/lib/libavformat.a(flvdec.o)
 .text          0x00020b38     0x1fa0 /home/chris/work/ffmpeg/refs/ffmpeg-armv7/lib/libavformat.a(hls.o)
 .text          0x00022ad8      0xa34 /home/chris/work/ffmpeg/refs/ffmpeg-armv7/lib/libavformat.a(hlsproto.o)
 .text          0x0002350c     0x1f94 /home/chris/work/ffmpeg/refs/ffmpeg-armv7/lib/libavformat.a(http.o)
                0x00025414                ff_http_init_auth_state
                0x00025468                ff_http_do_new_request
 .text          0x000254a0      0xabc /home/chris/work/ffmpeg/refs/ffmpeg-armv7/lib/libavformat.a(httpauth.o)
                0x000256c8                ff_http_auth_handle_header
                0x000258f4                ff_http_auth_create_response
 .text          0x00025f60     0x8188 /home/chris/work/ffmpeg/refs/ffmpeg-armv7/lib/libavformat.a(mov.o)
                0x0002d0f8                ff_mov_read_esds
                0x0002d1f0                ff_mov_get_lpcm_codec_id
                0x0002d208                ff_mov_read_stsd_entries
 .text          0x0002e0e8      0x3f0 /home/chris/work/ffmpeg/refs/ffmpeg-armv7/lib/libavformat.a(mov_chan.o)
                0x0002e0e8                ff_mov_get_channel_layout
                0x0002e17c                ff_mov_get_channel_layout_tag
                0x0002e2dc                ff_mov_read_chan
 .text          0x0002e4d8     0x12b8 /home/chris/work/ffmpeg/refs/ffmpeg-armv7/lib/libavformat.a(mpeg.o)
 .text          0x0002f790     0x4798 /home/chris/work/ffmpeg/refs/ffmpeg-armv7/lib/libavformat.a(mpegts.o)
                0x00032cc0                ff_parse_mpeg2_descriptor
                0x00033ce4                ff_mpegts_parse_open
                0x00033e10                ff_mpegts_parse_packet
                0x00033e7c                ff_mpegts_parse_close
 .text          0x00033f28      0x1d8 /home/chris/work/ffmpeg/refs/ffmpeg-armv7/lib/libavformat.a(mpegvideodec.o)
 .text          0x00034100      0x204 /home/chris/work/ffmpeg/refs/ffmpeg-armv7/lib/libavformat.a(network.o)
                0x00034100                ff_tls_init
                0x00034110                ff_tls_deinit
                0x00034120                ff_network_init
                0x00034158                ff_network_wait_fd
                0x000341c4                ff_network_wait_fd_timeout
                0x000342b4                ff_network_close
                0x000342b8                ff_is_multicast_address
 .text          0x00034304      0x1c8 /home/chris/work/ffmpeg/refs/ffmpeg-armv7/lib/libavformat.a(options.o)
                0x00034474                avformat_alloc_context
                0x000344b4                av_fmt_ctx_get_duration_estimation_method
                0x000344bc                avformat_get_class
 .text          0x000344cc      0x1a0 /home/chris/work/ffmpeg/refs/ffmpeg-armv7/lib/libavformat.a(rawdec.o)
                0x000344cc                ff_raw_read_partial_packet
                0x00034550                ff_raw_audio_read_header
                0x000345a8                ff_raw_video_read_header
 .text          0x00034670      0x7c0 /home/chris/work/ffmpeg/refs/ffmpeg-armv7/lib/libavformat.a(riff.o)
                0x00034670                ff_wav_codec_get_id
                0x000346fc                ff_get_bmp_header
                0x00034794                ff_get_guid
                0x000347c0                ff_codec_guid_get_id
                0x00034810                ff_get_wav_header
                0x00034b60                ff_read_riff_info
 .text          0x00034e30      0x6c0 /home/chris/work/ffmpeg/refs/ffmpeg-armv7/lib/libavformat.a(tcp.o)
 .text          0x000354f0      0x17c /home/chris/work/ffmpeg/refs/ffmpeg-armv7/lib/libavformat.a(urldecode.o)
                0x000354f0                ff_urldecode
 .text          0x00035670     0xc020 /home/chris/work/ffmpeg/refs/ffmpeg-armv7/lib/libavformat.a(utils.o)
                0x000366c4                avformat_version
                0x000366d0                avformat_configuration
                0x000366e0                avformat_license
                0x000366f4                av_iformat_next
                0x00036710                av_oformat_next
                0x00036730                av_register_input_format
                0x00036768                av_register_output_format
                0x000367a4                av_match_ext
                0x00036834                av_guess_format
                0x00036968                av_guess_codec
                0x00036994                av_find_input_format
                0x00036a1c                ffio_limit
                0x00036b44                av_get_packet
                0x00036be0                av_append_packet
                0x00036c4c                av_probe_input_format3
                0x00037160                av_probe_input_format2
                0x00037190                av_probe_input_format
                0x000371b0                av_demuxer_open
                0x00037224                av_probe_input_buffer
                0x000374e4                avformat_queue_attached_pictures
                0x000375a0                ff_read_packet
                0x00037ac4                av_read_packet
                0x00037ac8                ff_get_audio_frame_size
                0x00037b90                ff_compute_frame_duration
                0x00037d14                av_find_default_stream_index
                0x00037d98                ff_read_frame_flush
                0x00037f1c                ff_update_cur_dts
                0x00037f84                ff_reduce_index
                0x00038004                ff_index_search_timestamp
                0x00038158                ff_add_index_entry
                0x00038324                av_add_index_entry
                0x00038424                av_index_search_timestamp
                0x00038434                ff_gen_search
                0x00038d64                ff_seek_frame_binary
                0x00039010                ff_codec_get_tag
                0x00039064                ff_codec_get_id
                0x000390f0                ff_get_pcm_codec_id
                0x00039258                av_codec_get_tag2
                0x000392d4                av_codec_get_tag
                0x000392f4                av_codec_get_id
                0x00039340                av_find_program_from_stream
                0x0003b2d4                av_read_frame
                0x0003b6ac                av_seek_frame
                0x0003ba88                avformat_seek_file
                0x0003c1f8                avformat_find_stream_info
                0x0003e470                av_find_stream_info
                0x0003e478                av_find_best_stream
                0x0003e6ec                av_read_play
                0x0003e724                av_read_pause
                0x0003e760                ff_free_stream
                0x0003e8a8                avformat_free_context
                0x0003e9cc                avformat_close_input
                0x0003eb24                av_close_input_file
                0x0003eb44                av_new_program
                0x0003ebe8                avpriv_new_chapter
                0x0003ecb4                ff_program_add_stream_index
                0x0003ed94                av_dump_format
                0x0003f4ac                ff_ntp_time
                0x0003f4e8                av_get_frame_filename
                0x0003f618                av_filename_number_test
                0x0003f654                avformat_open_input
                0x0003faac                av_hex_dump
                0x0003fe50                av_hex_dump_log
                0x0003fe7c                av_pkt_dump2
                0x0003feb8                av_pkt_dump_log2
                0x0003fefc                av_url_split
                0x00040190                ff_data_to_hex
                0x00040200                ff_hex_to_data
                0x00040318                avpriv_set_pts_info
                0x00040418                av_set_pts_info
                0x0004041c                avformat_new_stream
                0x00040594                av_new_stream
                0x000405b0                ff_url_join
                0x00040754                ff_write_chained
                0x00040868                ff_parse_key_value
                0x00040a38                ff_find_stream_index
                0x00040a88                ff_make_absolute_url
                0x00040c88                ff_iso8601_to_unix_time
                0x00040d50                avformat_query_codec
                0x00040de0                avformat_network_init
                0x00040e10                avformat_network_deinit
                0x00040e24                ff_add_param_change
                0x00040fb4                avformat_get_riff_video_tags
                0x00040fc4                avformat_get_riff_audio_tags
                0x00040fd4                av_guess_sample_aspect_ratio
                0x00041120                avformat_match_stream_specifier
                0x00041478                ff_generate_avci_extradata
                0x00041570                ff_http_match_no_proxy
 .text.unlikely
                0x00041690       0x44 /home/chris/work/ffmpeg/refs/ffmpeg-armv7/lib/libavformat.a(utils.o)
 .text          0x000416d8     0x1bd8 /home/chris/work/ffmpeg/refs/ffmpeg-armv7/lib/libavformat.a(aviobuf.o)
                0x00041918                ffio_init_context
                0x00041a00                avio_alloc_context
                0x00041b24                avio_w8
                0x00041b40                ffio_fill
                0x00041bb4                avio_flush
                0x00041bcc                avio_write
                0x00041ca8                avio_size
                0x00041d78                avio_wl32
                0x00041db4                avio_wb32
                0x00041df0                avio_put_str
                0x00041e34                ff_get_v_length
                0x00041e74                ff_put_v
                0x00041ee0                avio_wl64
                0x00041f04                avio_wb64
                0x00041f28                avio_wl16
                0x00041f4c                avio_put_str16le
                0x00042054                avio_wb16
                0x00042078                avio_wl24
                0x0004209c                avio_wb24
                0x000420c0                ff_crc04C11DB7_update
                0x000420ec                ffio_get_checksum
                0x0004211c                ffio_init_checksum
                0x00042134                ffio_fdopen
                0x00042238                ffio_set_buf_size
                0x0004240c                avio_r8
                0x0004244c                ffio_read_varlen
                0x0004249c                avio_get_str
                0x0004254c                ff_get_line
                0x0004259c                avio_rb16
                0x000425bc                avio_get_str16be
                0x00042738                avio_rb32
                0x00042758                avio_rb64
                0x00042784                avio_rb24
                0x000427a4                avio_rl16
                0x000427c4                avio_get_str16le
                0x00042940                avio_rl32
                0x00042960                avio_rl64
                0x0004298c                avio_rl24
                0x000429ac                url_feof
                0x000429e4                ffio_read_partial
                0x00042acc                avio_read
                0x00042c30                avio_seek
                0x00042e98                avio_skip
                0x00042eb4                ffio_rewind_with_probe_data
                0x00042fe0                avio_open2
                0x00043034                avio_open
                0x00043050                avio_close
                0x000430c8                avio_closep
                0x000430e4                avio_printf
                0x00043160                avio_pause
                0x00043184                avio_seek_time
                0x0004322c                avio_open_dyn_buf
                0x00043234                ffio_open_dyn_packet_buf
                0x00043248                avio_close_dyn_buf
 .text          0x000432b0      0x278 /home/chris/work/ffmpeg/refs/ffmpeg-armv7/lib/libavformat.a(id3v1.o)
                0x0004333c                ff_id3v1_read
 .text          0x00043528     0x1c18 /home/chris/work/ffmpeg/refs/ffmpeg-armv7/lib/libavformat.a(id3v2.o)
                0x00043f08                ff_id3v2_match
                0x00043f94                ff_id3v2_tag_len
                0x00043fe0                ff_id3v2_read
                0x00044f4c                ff_id3v2_free_extra_meta
                0x00045014                ff_id3v2_parse_apic
 .text          0x00045140      0x4ec /home/chris/work/ffmpeg/refs/ffmpeg-armv7/lib/libavformat.a(isom.o)
                0x00045140                ff_mov_iso639_to_lang
                0x00045214                ff_mov_lang_to_iso639
                0x000452b8                ff_mp4_read_descr_len
                0x00045318                ff_mp4_read_descr
                0x0004533c                ff_mp4_parse_es_descr
                0x000453bc                ff_mp4_read_dec_config_descr
                0x00045574                ff_mov_write_chan
 .text          0x0004562c      0x218 /home/chris/work/ffmpeg/refs/ffmpeg-armv7/lib/libavformat.a(metadata.o)
                0x0004562c                ff_metadata_conv
                0x00045764                ff_metadata_conv_ctx
 .text          0x00045848     0x20a8 /home/chris/work/ffmpeg/refs/ffmpeg-armv7/lib/libavformat.a(mux.o)
                0x00046348                ff_choose_timebase
                0x00046460                avformat_alloc_output_context2
                0x000465ac                avformat_alloc_output_context
                0x000465dc                avformat_write_header
                0x00046cf0                av_write_frame
                0x00046e00                ff_interleave_add_packet
                0x00047210                ff_interleave_packet_per_dts
                0x00047554                av_interleave_packet_per_dts
                0x00047558                av_interleaved_write_frame
                0x00047718                av_write_trailer
                0x000478b8                av_get_output_timestamp
 .text          0x000478f0       0x48 /home/chris/work/ffmpeg/refs/ffmpeg-armv7/lib/libavformat.a(os_support.o)
                0x000478f0                ff_inet_aton
                0x000478f4                ff_socket_nonblock
 .text          0x00047938        0x0 /home/chris/work/ffmpeg/refs/ffmpeg-armv7/lib/libavcodec.a(ac3tab.o)
 .text          0x00047938      0x1c4 /home/chris/work/ffmpeg/refs/ffmpeg-armv7/lib/libavcodec.a(allcodecs.o)
                0x00047938                avcodec_register_all
 .text          0x00047afc      0xa4c /home/chris/work/ffmpeg/refs/ffmpeg-armv7/lib/libavcodec.a(avpacket.o)
                0x00047afc                av_destruct_packet
                0x00047ca4                ff_packet_free_side_data
                0x00047cf4                av_init_packet
                0x00047d44                av_new_packet
                0x00047dd0                av_shrink_packet
                0x00047df8                av_grow_packet
                0x00047ec4                av_dup_packet
                0x00047f14                av_copy_packet
                0x00047f38                av_free_packet
                0x00047fa4                av_packet_new_side_data
                0x0004803c                av_packet_get_side_data
                0x000480a8                av_packet_merge_side_data
                0x000482bc                av_packet_split_side_data
                0x000484d8                av_packet_shrink_side_data
 .text          0x00048548      0x100 /home/chris/work/ffmpeg/refs/ffmpeg-armv7/lib/libavcodec.a(avpicture.o)
                0x00048548                avpicture_fill
                0x00048584                avpicture_layout
                0x000485b8                avpicture_get_size
                0x000485c0                avpicture_alloc
                0x0004860c                avpicture_free
                0x00048614                av_picture_copy
 .text          0x00048648      0x130 /home/chris/work/ffmpeg/refs/ffmpeg-armv7/lib/libavcodec.a(bitstream_filter.o)
                0x00048648                av_bitstream_filter_next
                0x00048664                av_register_bitstream_filter
                0x00048680                av_bitstream_filter_init
                0x00048700                av_bitstream_filter_close
                0x00048738                av_bitstream_filter_filter
 .text          0x00048778       0x60 /home/chris/work/ffmpeg/refs/ffmpeg-armv7/lib/libavcodec.a(chomp_bsf.o)
 .text          0x000487d8      0x100 /home/chris/work/ffmpeg/refs/ffmpeg-armv7/lib/libavcodec.a(codec_desc.o)
                0x000487d8                avcodec_descriptor_get
                0x0004884c                avcodec_descriptor_next
                0x000488a0                avcodec_descriptor_get_by_name
 .text          0x000488d8       0xb0 /home/chris/work/ffmpeg/refs/ffmpeg-armv7/lib/libavcodec.a(dump_extradata_bsf.o)
 .text          0x00048988      0x160 /home/chris/work/ffmpeg/refs/ffmpeg-armv7/lib/libavcodec.a(h263_parser.o)
                0x00048988                ff_h263_find_frame_end
 .text          0x00048ae8     0x195c /home/chris/work/ffmpeg/refs/ffmpeg-armv7/lib/libavcodec.a(h263dec.o)
                0x00049414                ff_h263_decode_frame
 .text.unlikely
                0x0004a444      0x214 /home/chris/work/ffmpeg/refs/ffmpeg-armv7/lib/libavcodec.a(h263dec.o)
                0x0004a444                ff_h263_decode_end
                0x0004a458                ff_h263_decode_init
 .text          0x0004a658    0x21a2c /home/chris/work/ffmpeg/refs/ffmpeg-armv7/lib/libavcodec.a(h264.o)
                0x000649a0                avpriv_h264_has_num_reorder_frames
                0x000649b4                ff_h264_draw_horiz_band
                0x00064be4                ff_h264_check_intra4x4_pred_mode
                0x00064e18                ff_h264_check_intra_pred_mode
                0x00064f98                ff_h264_decode_nal
                0x00065228                ff_h264_alloc_tables
                0x000661b0                ff_h264_frame_start
                0x00066984                ff_h264_hl_decode_mb
                0x0006762c                ff_h264_get_profile
                0x0006b9a4                ff_h264_decode_extradata
                0x0006c04c                ff_h264_get_slice_type
 .text.unlikely
                0x0006c084      0x408 /home/chris/work/ffmpeg/refs/ffmpeg-armv7/lib/libavcodec.a(h264.o)
                0x0006c084                ff_h264_free_context
                0x0006c1ac                ff_h264_decode_init
 .text          0x0006c490     0xada8 /home/chris/work/ffmpeg/refs/ffmpeg-armv7/lib/libavcodec.a(h264_cabac.o)
                0x0006f6a8                ff_h264_init_cabac_states
                0x0006f774                ff_h264_decode_mb_cabac
 .text          0x00077238     0x8380 /home/chris/work/ffmpeg/refs/ffmpeg-armv7/lib/libavcodec.a(h264_cavlc.o)
                0x00079744                ff_h264_decode_mb_cavlc
 .text.unlikely
                0x0007f5b8      0x5ec /home/chris/work/ffmpeg/refs/ffmpeg-armv7/lib/libavcodec.a(h264_cavlc.o)
                0x0007f5b8                ff_h264_decode_init_vlc
 .text          0x0007fba4     0x2bfc /home/chris/work/ffmpeg/refs/ffmpeg-armv7/lib/libavcodec.a(h264_direct.o)
                0x0007fe14                ff_h264_direct_dist_scale_factor
                0x000800c8                ff_h264_direct_ref_list_init
                0x000803a8                ff_h264_pred_direct_motion
 .text          0x000827a0     0xb088 /home/chris/work/ffmpeg/refs/ffmpeg-armv7/lib/libavcodec.a(h264_loopfilter.o)
                0x000829c8                ff_h264_filter_mb
                0x00086e04                ff_h264_filter_mb_fast
 .text          0x0008d828      0x4a0 /home/chris/work/ffmpeg/refs/ffmpeg-armv7/lib/libavcodec.a(h264_mp4toannexb_bsf.o)
 .text          0x0008dcc8      0xd70 /home/chris/work/ffmpeg/refs/ffmpeg-armv7/lib/libavcodec.a(h264_parser.o)
 .text          0x0008ea38     0x2b70 /home/chris/work/ffmpeg/refs/ffmpeg-armv7/lib/libavcodec.a(h264_ps.o)
                0x0008f100                ff_h264_decode_seq_parameter_set
                0x00090a0c                ff_h264_decode_picture_parameter_set
 .text          0x000915a8     0x2814 /home/chris/work/ffmpeg/refs/ffmpeg-armv7/lib/libavcodec.a(h264_refs.o)
                0x00091abc                ff_h264_fill_default_ref_list
                0x00091fb8                ff_h264_decode_ref_pic_list_reordering
                0x000927c8                ff_h264_fill_mbaff_ref_list
                0x000929a0                ff_h264_remove_all_refs
                0x00092b30                ff_generate_sliding_window_mmcos
                0x00092d30                ff_h264_execute_ref_pic_marking
                0x00093990                ff_h264_decode_ref_pic_marking
 .text          0x00093dbc      0xbe0 /home/chris/work/ffmpeg/refs/ffmpeg-armv7/lib/libavcodec.a(h264_sei.o)
                0x00093f10                ff_h264_reset_sei
                0x00093f54                ff_h264_decode_sei
 .text          0x0009499c     0x2044 /home/chris/work/ffmpeg/refs/ffmpeg-armv7/lib/libavcodec.a(h264chroma.o)
                0x00096918                ff_h264chroma_init
 .text          0x000969e0    0x1a074 /home/chris/work/ffmpeg/refs/ffmpeg-armv7/lib/libavcodec.a(h264dsp.o)
                0x000afbe8                ff_h264dsp_init
 .text          0x000b0a54     0xab44 /home/chris/work/ffmpeg/refs/ffmpeg-armv7/lib/libavcodec.a(h264idct.o)
                0x000b0a54                ff_h264_idct_add_8_c
                0x000b0f78                ff_h264_idct8_add_8_c
                0x000b1f60                ff_h264_idct_dc_add_8_c
                0x000b208c                ff_h264_idct8_dc_add_8_c
                0x000b2570                ff_h264_idct_add16_8_c
                0x000b260c                ff_h264_idct_add16intra_8_c
                0x000b26a8                ff_h264_idct8_add4_8_c
                0x000b27f4                ff_h264_idct_add8_8_c
                0x000b28f4                ff_h264_idct_add8_422_8_c
                0x000b2ae8                ff_h264_luma_dc_dequant_idct_8_c
                0x000b2f18                ff_h264_chroma422_dc_dequant_idct_8_c
                0x000b302c                ff_h264_chroma_dc_dequant_idct_8_c
                0x000b3098                ff_h264_idct_add_9_c
                0x000b35dc                ff_h264_idct8_add_9_c
                0x000b416c                ff_h264_idct_dc_add_9_c
                0x000b429c                ff_h264_idct8_dc_add_9_c
                0x000b473c                ff_h264_idct_add16_9_c
                0x000b47d8                ff_h264_idct_add16intra_9_c
                0x000b4874                ff_h264_idct8_add4_9_c
                0x000b49c0                ff_h264_idct_add8_9_c
                0x000b4ac0                ff_h264_idct_add8_422_9_c
                0x000b4cb4                ff_h264_luma_dc_dequant_idct_9_c
                0x000b5058                ff_h264_chroma422_dc_dequant_idct_9_c
                0x000b516c                ff_h264_chroma_dc_dequant_idct_9_c
                0x000b51d8                ff_h264_idct_add_10_c
                0x000b571c                ff_h264_idct8_add_10_c
                0x000b62ac                ff_h264_idct_dc_add_10_c
                0x000b63dc                ff_h264_idct8_dc_add_10_c
                0x000b687c                ff_h264_idct_add16_10_c
                0x000b6918                ff_h264_idct_add16intra_10_c
                0x000b69b4                ff_h264_idct8_add4_10_c
                0x000b6b00                ff_h264_idct_add8_10_c
                0x000b6c00                ff_h264_idct_add8_422_10_c
                0x000b6df4                ff_h264_luma_dc_dequant_idct_10_c
                0x000b7198                ff_h264_chroma422_dc_dequant_idct_10_c
                0x000b72ac                ff_h264_chroma_dc_dequant_idct_10_c
                0x000b7318                ff_h264_idct_add_12_c
                0x000b785c                ff_h264_idct8_add_12_c
                0x000b83ec                ff_h264_idct_dc_add_12_c
                0x000b851c                ff_h264_idct8_dc_add_12_c
                0x000b89bc                ff_h264_idct_add16_12_c
                0x000b8a58                ff_h264_idct_add16intra_12_c
                0x000b8af4                ff_h264_idct8_add4_12_c
                0x000b8c40                ff_h264_idct_add8_12_c
                0x000b8d40                ff_h264_idct_add8_422_12_c
                0x000b8f34                ff_h264_luma_dc_dequant_idct_12_c
                0x000b92d8                ff_h264_chroma422_dc_dequant_idct_12_c
                0x000b93ec                ff_h264_chroma_dc_dequant_idct_12_c
                0x000b9458                ff_h264_idct_add_14_c
                0x000b999c                ff_h264_idct8_add_14_c
                0x000ba52c                ff_h264_idct_dc_add_14_c
                0x000ba65c                ff_h264_idct8_dc_add_14_c
                0x000baafc                ff_h264_idct_add16_14_c
                0x000bab98                ff_h264_idct_add16intra_14_c
                0x000bac34                ff_h264_idct8_add4_14_c
                0x000bad80                ff_h264_idct_add8_14_c
                0x000bae80                ff_h264_idct_add8_422_14_c
                0x000bb074                ff_h264_luma_dc_dequant_idct_14_c
                0x000bb418                ff_h264_chroma422_dc_dequant_idct_14_c
                0x000bb52c                ff_h264_chroma_dc_dequant_idct_14_c
 .text          0x000bb598    0x363c4 /home/chris/work/ffmpeg/refs/ffmpeg-armv7/lib/libavcodec.a(h264pred.o)
                0x000eefa4                ff_h264_pred_init
 .text          0x000f1960    0x46280 /home/chris/work/ffmpeg/refs/ffmpeg-armv7/lib/libavcodec.a(h264qpel.o)
                0x0013479c                ff_h264qpel_init
 .text          0x00137be0       0xa8 /home/chris/work/ffmpeg/refs/ffmpeg-armv7/lib/libavcodec.a(imx_dump_header_bsf.o)
 .text          0x00137c88     0x4098 /home/chris/work/ffmpeg/refs/ffmpeg-armv7/lib/libavcodec.a(ituh263dec.o)
                0x00138448                ff_h263_show_pict_info
                0x001386f4                ff_h263_decode_init_vlc
                0x00138b28                ff_h263_decode_mba
                0x00138e14                ff_h263_find_resync_marker
                0x00138eac                ff_h263_resync
                0x00139018                ff_h263_decode_motion
                0x00139158                ff_h263_decode_mb
                0x0013ae94                ff_h263_decode_picture_header
 .text          0x0013bd20        0x0 /home/chris/work/ffmpeg/refs/ffmpeg-armv7/lib/libavcodec.a(mathtables.o)
 .text          0x0013bd20      0x204 /home/chris/work/ffmpeg/refs/ffmpeg-armv7/lib/libavcodec.a(mjpeg2jpeg_bsf.o)
 .text          0x0013bf24      0x308 /home/chris/work/ffmpeg/refs/ffmpeg-armv7/lib/libavcodec.a(mjpega_dump_header_bsf.o)
 .text          0x0013c22c       0xb4 /home/chris/work/ffmpeg/refs/ffmpeg-armv7/lib/libavcodec.a(movsub_bsf.o)
 .text          0x0013c2e0      0x1f4 /home/chris/work/ffmpeg/refs/ffmpeg-armv7/lib/libavcodec.a(mp3_header_compress_bsf.o)
 .text          0x0013c4d4      0x29c /home/chris/work/ffmpeg/refs/ffmpeg-armv7/lib/libavcodec.a(mp3_header_decompress_bsf.o)
 .text          0x0013c770     0x69fc /home/chris/work/ffmpeg/refs/ffmpeg-armv7/lib/libavcodec.a(mpeg12.o)
                0x0013d140                ff_mpeg1_decode_block_intra
                0x0013d4fc                ff_mpeg12_common_init
                0x0013d528                ff_mpeg1_clean_buffers
                0x00142b3c                ff_mpeg1_find_frame_end
 .text.unlikely
                0x0014316c      0x510 /home/chris/work/ffmpeg/refs/ffmpeg-armv7/lib/libavcodec.a(mpeg12.o)
                0x00143214                ff_mpeg12_init_vlcs
 .text          0x0014367c        0x0 /home/chris/work/ffmpeg/refs/ffmpeg-armv7/lib/libavcodec.a(mpeg12data.o)
 .text          0x0014367c      0xdfc /home/chris/work/ffmpeg/refs/ffmpeg-armv7/lib/libavcodec.a(mpeg4audio.o)
                0x0014367c                avpriv_mpeg4audio_get_config
                0x00143c54                avpriv_copy_pce_data
 .text          0x00144478     0x1b38 /home/chris/work/ffmpeg/refs/ffmpeg-armv7/lib/libavcodec.a(mpeg4video.o)
                0x00144478                ff_mpeg4_get_video_packet_prefix_length
                0x001444ec                ff_mpeg4_clean_buffers
                0x001445ac                ff_mpeg4_init_direct_mv
                0x00144614                ff_mpeg4_set_direct_mv
 .text          0x00145fb0      0x350 /home/chris/work/ffmpeg/refs/ffmpeg-armv7/lib/libavcodec.a(mpeg4video_parser.o)
                0x00145fb0                ff_mpeg4_find_frame_end
 .text.unlikely
                0x00146300       0x30 /home/chris/work/ffmpeg/refs/ffmpeg-armv7/lib/libavcodec.a(mpeg4video_parser.o)
 .text          0x00146330     0x9808 /home/chris/work/ffmpeg/refs/ffmpeg-armv7/lib/libavcodec.a(mpeg4videodec.o)
                0x00148080                ff_mpeg4_pred_ac
                0x0014bb18                ff_mpeg4_decode_video_packet_header
                0x0014bee4                ff_mpeg4_decode_partitions
                0x0014df1c                ff_mpeg4_decode_picture_header
 .text.unlikely
                0x0014fb38      0x448 /home/chris/work/ffmpeg/refs/ffmpeg-armv7/lib/libavcodec.a(mpeg4videodec.o)
                0x0014fb38                ff_mpeg4videodec_static_init
 .text          0x0014ff80        0x0 /home/chris/work/ffmpeg/refs/ffmpeg-armv7/lib/libavcodec.a(mpegaudiodata.o)
 .text          0x0014ff80     0x49c4 /home/chris/work/ffmpeg/refs/ffmpeg-armv7/lib/libavcodec.a(mpegaudiodec.o)
 .text.unlikely
                0x00154948      0x948 /home/chris/work/ffmpeg/refs/ffmpeg-armv7/lib/libavcodec.a(mpegaudiodec.o)
 .text          0x00155290      0x268 /home/chris/work/ffmpeg/refs/ffmpeg-armv7/lib/libavcodec.a(mpegaudiodecheader.o)
                0x00155290                avpriv_mpegaudio_decode_header
                0x00155408                avpriv_mpa_decode_header
 .text          0x001554f8       0x98 /home/chris/work/ffmpeg/refs/ffmpeg-armv7/lib/libavcodec.a(mpegaudiodsp.o)
                0x001554f8                ff_mpadsp_init
 .text          0x00155590     0x1230 /home/chris/work/ffmpeg/refs/ffmpeg-armv7/lib/libavcodec.a(mpegaudiodsp_fixed.o)
                0x00155590                ff_mpadsp_apply_window_fixed
                0x00155b34                ff_mpa_synth_filter_fixed
                0x00155b98                ff_init_mpadsp_tabs_fixed
                0x00155e84                ff_imdct36_blocks_fixed
 .text.unlikely
                0x001567c0       0xd8 /home/chris/work/ffmpeg/refs/ffmpeg-armv7/lib/libavcodec.a(mpegaudiodsp_fixed.o)
                0x001567c0                ff_mpa_synth_init_fixed
 .text          0x00156898      0xf28 /home/chris/work/ffmpeg/refs/ffmpeg-armv7/lib/libavcodec.a(mpegaudiodsp_float.o)
                0x00156898                ff_mpadsp_apply_window_float
                0x00156dcc                ff_mpa_synth_filter_float
                0x00156e30                ff_init_mpadsp_tabs_float
                0x001570dc                ff_imdct36_blocks_float
 .text.unlikely
                0x001577c0       0xf4 /home/chris/work/ffmpeg/refs/ffmpeg-armv7/lib/libavcodec.a(mpegaudiodsp_float.o)
                0x001577c0                ff_mpa_synth_init_float
 .text          0x001578b8     0xc3b0 /home/chris/work/ffmpeg/refs/ffmpeg-armv7/lib/libavcodec.a(mpegvideo.o)
                0x0015ccc0                avpriv_mpv_find_start_code
                0x0015cda4                ff_copy_picture
                0x0015cdc0                ff_mpv_frame_size_alloc
                0x0015cea0                ff_alloc_picture
                0x0015d61c                ff_update_duplicate_context
                0x0015d6d8                ff_MPV_common_defaults
                0x0015d774                ff_MPV_decode_defaults
                0x0015d778                ff_MPV_common_end
                0x0015da4c                ff_MPV_common_frame_size_change
                0x0015dd88                ff_mpeg_update_thread_context
                0x0015e268                ff_init_rl
                0x0015e410                ff_init_vlc_rl
                0x0015e500                ff_release_unused_pictures
                0x0015e640                ff_find_unused_picture
                0x0015e8f0                ff_MPV_frame_start
                0x0015f2cc                ff_MPV_frame_end
                0x0015f538                ff_print_debug_info2
                0x00160c84                ff_print_debug_info
                0x00160ce0                ff_MPV_lowest_referenced_row
                0x00160dc4                ff_clean_intra_table_entries
                0x00160ee8                ff_MPV_decode_mb
                0x00163298                ff_draw_horiz_band
                0x001635a8                ff_mpeg_draw_horiz_band
                0x0016363c                ff_init_block_index
                0x001639a8                ff_block_permute
                0x00163a20                ff_mpeg_flush
                0x00163b48                ff_set_qscale
                0x00163bac                ff_MPV_report_decode_progress
                0x00163bf4                ff_mpeg_er_frame_start
 .text.unlikely
                0x00163c68      0x6ec /home/chris/work/ffmpeg/refs/ffmpeg-armv7/lib/libavcodec.a(mpegvideo.o)
                0x00163c68                ff_dct_common_init
                0x00163dd8                ff_MPV_common_init
 .text          0x00164354     0x4d6c /home/chris/work/ffmpeg/refs/ffmpeg-armv7/lib/libavcodec.a(mpegvideo_motion.o)
                0x001658d8                ff_MPV_motion
 .text          0x001690c0       0xc4 /home/chris/work/ffmpeg/refs/ffmpeg-armv7/lib/libavcodec.a(noise_bsf.o)
 .text          0x00169184      0x5dc /home/chris/work/ffmpeg/refs/ffmpeg-armv7/lib/libavcodec.a(options.o)
                0x00169290                avcodec_get_context_defaults3
                0x001694bc                avcodec_get_context_defaults2
                0x001694f4                avcodec_alloc_context3
                0x00169534                avcodec_alloc_context2
                0x0016955c                avcodec_get_context_defaults
                0x00169564                avcodec_alloc_context
                0x0016956c                avcodec_copy_context
                0x00169728                avcodec_get_class
                0x00169738                avcodec_get_frame_class
                0x0016974c                avcodec_get_subtitle_rect_class
 .text          0x00169760      0xa9c /home/chris/work/ffmpeg/refs/ffmpeg-armv7/lib/libavcodec.a(parser.o)
                0x00169760                av_parser_next
                0x0016977c                av_register_codec_parser
                0x00169798                av_parser_init
                0x001698ac                ff_fetch_timestamp
                0x00169d2c                av_parser_parse2
                0x00169eb4                av_parser_change
                0x00169fa4                av_parser_close
                0x00169fd8                ff_combine_frame
                0x0016a198                ff_parse_close
                0x0016a1a0                ff_mpeg4video_split
 .text          0x0016a1fc       0x58 /home/chris/work/ffmpeg/refs/ffmpeg-armv7/lib/libavcodec.a(raw.o)
                0x0016a1fc                avcodec_pix_fmt_to_codec_tag
 .text          0x0016a254      0x6bc /home/chris/work/ffmpeg/refs/ffmpeg-armv7/lib/libavcodec.a(rawdec.o)
                0x0016a8a8                avpriv_find_pix_fmt
                0x0016a90c                ff_find_pix_fmt
 .text.unlikely
                0x0016a910      0x258 /home/chris/work/ffmpeg/refs/ffmpeg-armv7/lib/libavcodec.a(rawdec.o)
 .text          0x0016ab68       0xe0 /home/chris/work/ffmpeg/refs/ffmpeg-armv7/lib/libavcodec.a(remove_extradata_bsf.o)
 .text          0x0016ac48     0x58f0 /home/chris/work/ffmpeg/refs/ffmpeg-armv7/lib/libavcodec.a(utils.o)
                0x0016ad4c                avcodec_default_release_buffer
                0x0016aedc                av_fast_realloc
                0x0016af28                av_fast_malloc
                0x0016af78                av_fast_padded_malloc
                0x0016b000                av_fast_padded_mallocz
                0x0016b07c                av_codec_next
                0x0016b098                av_codec_is_encoder
                0x0016b0c4                av_codec_is_decoder
                0x0016b1ec                avcodec_register
                0x0016b270                avcodec_get_edge_width
                0x0016b278                avcodec_set_dimensions
                0x0016b3b0                avcodec_align_dimensions2
                0x0016b624                avcodec_align_dimensions
                0x0016b6ac                avcodec_fill_audio_frame
                0x0016b7bc                avcodec_default_get_buffer
                0x0016bfac                avpriv_color_frame
                0x0016c158                avcodec_default_execute
                0x0016c1e8                avcodec_default_execute2
                0x0016c280                avcodec_default_get_format
                0x0016c2bc                avcodec_free_frame
                0x0016c2f4                av_frame_get_best_effort_timestamp
                0x0016c304                av_frame_set_best_effort_timestamp
                0x0016c310                av_frame_get_pkt_duration
                0x0016c320                av_frame_set_pkt_duration
                0x0016c32c                av_frame_get_pkt_pos
                0x0016c33c                av_frame_set_pkt_pos
                0x0016c348                av_frame_get_channel_layout
                0x0016c358                av_frame_set_channel_layout
                0x0016c364                av_frame_get_channels
                0x0016c36c                av_frame_set_channels
                0x0016c374                av_frame_get_sample_rate
                0x0016c37c                av_frame_set_sample_rate
                0x0016c384                av_frame_get_metadata
                0x0016c38c                av_frame_set_metadata
                0x0016c394                av_frame_get_decode_error_flags
                0x0016c39c                av_frame_set_decode_error_flags
                0x0016c3a4                av_frame_get_pkt_size
                0x0016c3ac                av_frame_set_pkt_size
                0x0016c3b4                avcodec_get_frame_defaults
                0x0016c43c                avcodec_alloc_frame
                0x0016c464                ff_init_buffer_info
                0x0016c574                ff_get_buffer
                0x0016c598                avcodec_default_reget_buffer
                0x0016c75c                ff_frame_get_metadatap
                0x0016c808                av_codec_get_pkt_timebase
                0x0016c820                av_codec_set_pkt_timebase
                0x0016c83c                av_codec_get_codec_descriptor
                0x0016c844                av_codec_set_codec_descriptor
                0x0016c84c                ff_alloc_packet2
                0x0016c9c8                ff_alloc_packet
                0x0016c9dc                avcodec_encode_audio2
                0x0016ceac                avcodec_encode_video2
                0x0016d140                avcodec_encode_video
                0x0016d22c                avcodec_encode_subtitle
                0x0016d278                avcodec_decode_video2
                0x0016d4a0                avcodec_decode_audio4
                0x0016d8ec                avcodec_decode_audio3
                0x0016da70                avcodec_decode_subtitle2
                0x0016dc4c                avsubtitle_free
                0x0016dd08                avcodec_find_encoder
                0x0016dd10                avcodec_find_encoder_by_name
                0x0016dd6c                avcodec_find_decoder
                0x0016dd74                avcodec_find_decoder_by_name
                0x0016ddd0                avcodec_get_name
                0x0016de4c                av_get_codec_tag_string
                0x0016e154                av_get_profile_name
                0x0016e1bc                avcodec_version
                0x0016e1c8                avcodec_configuration
                0x0016e1d8                avcodec_license
                0x0016e1ec                avcodec_flush_buffers
                0x0016e224                avcodec_default_free_buffers
                0x0016e2ec                av_get_exact_bits_per_sample
                0x0016e47c                av_get_pcm_codec
                0x0016e4b0                av_get_bits_per_sample
                0x0016e4f8                avcodec_string
                0x0016eb10                avcodec_encode_audio
                0x0016ed20                av_get_audio_frame_duration
                0x0016f440                ff_thread_init
                0x0016f448                av_xiphlacing
                0x0016f480                ff_match_2uint16
                0x0016f4d0                av_log_ask_for_sample
                0x0016f524                av_log_missing_feature
                0x0016f560                av_register_hwaccel
                0x0016f59c                av_hwaccel_next
                0x0016f5bc                ff_find_hwaccel
                0x0016f600                av_lockmgr_register
                0x0016f6a4                ff_unlock_avcodec
                0x0016f748                ff_lock_avcodec
                0x0016f844                avpriv_lock_avformat
                0x0016f880                avpriv_unlock_avformat
                0x0016f8bc                avpriv_toupper4
                0x0016f90c                ff_thread_get_buffer
                0x0016f914                ff_thread_release_buffer
                0x0016f928                ff_thread_finish_setup
                0x0016f92c                ff_thread_report_progress
                0x0016f930                ff_thread_await_progress
                0x0016f934                ff_thread_can_start_frame
                0x0016f93c                avcodec_get_type
                0x0016f994                avcodec_is_open
                0x0016f9a4                avcodec_open2
                0x001704bc                ff_codec_open2_recursive
                0x001704f4                avcodec_open
                0x001704fc                avpriv_bprint_to_extradata
 .text.unlikely
                0x00170538      0x108 /home/chris/work/ffmpeg/refs/ffmpeg-armv7/lib/libavcodec.a(utils.o)
                0x00170538                avcodec_close
                0x00170618                ff_codec_close_recursive
 .text          0x00170640      0x59c /home/chris/work/ffmpeg/refs/ffmpeg-armv7/lib/libavcodec.a(videodsp.o)
                0x00170644                ff_emulated_edge_mc_16
                0x00170918                ff_emulated_edge_mc_8
                0x00170ba0                ff_videodsp_init
 .text          0x00170bdc      0x348 /home/chris/work/ffmpeg/refs/ffmpeg-armv7/lib/libavcodec.a(aac_adtstoasc_bsf.o)
 .text          0x00170f24       0xa4 /home/chris/work/ffmpeg/refs/ffmpeg-armv7/lib/libavcodec.a(aac_parser.o)
 .text.unlikely
                0x00170fc8       0x24 /home/chris/work/ffmpeg/refs/ffmpeg-armv7/lib/libavcodec.a(aac_parser.o)
 .text          0x00170fec      0x210 /home/chris/work/ffmpeg/refs/ffmpeg-armv7/lib/libavcodec.a(aacadtsdec.o)
                0x00170fec                avpriv_aac_parse_header
 .text          0x001711fc     0x761c /home/chris/work/ffmpeg/refs/ffmpeg-armv7/lib/libavcodec.a(aacdec.o)
 .text.unlikely
                0x00178818      0x914 /home/chris/work/ffmpeg/refs/ffmpeg-armv7/lib/libavcodec.a(aacdec.o)
 .text          0x00179130     0x5ec8 /home/chris/work/ffmpeg/refs/ffmpeg-armv7/lib/libavcodec.a(aacsbr.o)
                0x0017ba08                ff_decode_sbr_extension
                0x0017d684                ff_sbr_apply
 .text.unlikely
                0x0017eff8      0x52c /home/chris/work/ffmpeg/refs/ffmpeg-armv7/lib/libavcodec.a(aacsbr.o)
                0x0017eff8                ff_aac_sbr_init
                0x0017f3e4                ff_aac_sbr_ctx_init
                0x0017f508                ff_aac_sbr_ctx_close
 .text          0x0017f528       0x80 /home/chris/work/ffmpeg/refs/ffmpeg-armv7/lib/libavcodec.a(aactab.o)
                0x0017f528                ff_aac_tableinit
 .text          0x0017f5a8      0x730 /home/chris/work/ffmpeg/refs/ffmpeg-armv7/lib/libavcodec.a(ac3_parser.o)
                0x0017f5a8                avpriv_ac3_parse_header
 .text.unlikely
                0x0017fcd8       0x24 /home/chris/work/ffmpeg/refs/ffmpeg-armv7/lib/libavcodec.a(ac3_parser.o)
 .text          0x0017fd00     0x3cf0 /home/chris/work/ffmpeg/refs/ffmpeg-armv7/lib/libavcodec.a(ac3dec.o)
 .text.unlikely
                0x001839f0      0x3c8 /home/chris/work/ffmpeg/refs/ffmpeg-armv7/lib/libavcodec.a(ac3dec.o)
 .text          0x00183db8        0x0 /home/chris/work/ffmpeg/refs/ffmpeg-armv7/lib/libavcodec.a(ac3dec_data.o)
 .text          0x00183db8      0x724 /home/chris/work/ffmpeg/refs/ffmpeg-armv7/lib/libavcodec.a(ac3dsp.o)
 .text.unlikely
                0x001844dc       0xfc /home/chris/work/ffmpeg/refs/ffmpeg-armv7/lib/libavcodec.a(ac3dsp.o)
                0x001844dc                ff_ac3dsp_init
 .text          0x001845d8        0x0 /home/chris/work/ffmpeg/refs/ffmpeg-armv7/lib/libavcodec.a(ac3dsp_init_arm.o)
 .text.unlikely
                0x001845d8       0xc8 /home/chris/work/ffmpeg/refs/ffmpeg-armv7/lib/libavcodec.a(ac3dsp_init_arm.o)
                0x001845d8                ff_ac3dsp_init_arm
 .text          0x001846a0      0x1a0 /home/chris/work/ffmpeg/refs/ffmpeg-armv7/lib/libavcodec.a(ac3dsp_neon.o)
                0x001846a0                ff_ac3_max_msb_abs_int16_neon
                0x001846e0                ff_ac3_exponent_min_neon
                0x0018471c                ff_ac3_lshift_int16_neon
                0x00184738                ff_ac3_rshift_int32_neon
                0x00184758                ff_float_to_fixed24_neon
                0x00184784                ff_ac3_extract_exponents_neon
                0x001847b0                ff_ac3_sum_square_butterfly_int32_neon
                0x00184800                ff_ac3_sum_square_butterfly_float_neon
 .text          0x00184840        0x0 /home/chris/work/ffmpeg/refs/ffmpeg-armv7/lib/libavcodec.a(h264chroma_init_arm.o)
 .text.unlikely
                0x00184840       0x94 /home/chris/work/ffmpeg/refs/ffmpeg-armv7/lib/libavcodec.a(h264chroma_init_arm.o)
                0x00184840                ff_h264chroma_init_arm
 .text          0x001848d4      0x698 /home/chris/work/ffmpeg/refs/ffmpeg-armv7/lib/libavcodec.a(h264cmc_neon.o)
                0x001848d4                ff_put_h264_chroma_mc8_neon
                0x00184a04                ff_avg_h264_chroma_mc8_neon
                0x00184b5c                ff_put_h264_chroma_mc4_neon
                0x00184c9c                ff_avg_h264_chroma_mc4_neon
                0x00184e04                ff_put_h264_chroma_mc2_neon
                0x00184ea8                ff_avg_h264_chroma_mc2_neon
 .text          0x00184f6c        0x0 /home/chris/work/ffmpeg/refs/ffmpeg-armv7/lib/libavcodec.a(h264dsp_init_arm.o)
 .text.unlikely
                0x00184f6c      0x160 /home/chris/work/ffmpeg/refs/ffmpeg-armv7/lib/libavcodec.a(h264dsp_init_arm.o)
                0x00184f6c                ff_h264dsp_init_arm
 .text          0x001850cc     0x124c /home/chris/work/ffmpeg/refs/ffmpeg-armv7/lib/libavcodec.a(h264dsp_neon.o)
                0x001850cc                ff_h264_v_loop_filter_luma_neon
                0x00185234                ff_h264_h_loop_filter_luma_neon
                0x00185434                ff_h264_v_loop_filter_chroma_neon
                0x001854ec                ff_h264_h_loop_filter_chroma_neon
                0x001855ec                ff_biweight_h264_pixels_16_neon
                0x00185898                ff_biweight_h264_pixels_8_neon
                0x00185aa4                ff_biweight_h264_pixels_4_neon
                0x00185d70                ff_weight_h264_pixels_16_neon
                0x00185f58                ff_weight_h264_pixels_8_neon
                0x001860c0                ff_weight_h264_pixels_4_neon
 .text          0x00186318      0x588 /home/chris/work/ffmpeg/refs/ffmpeg-armv7/lib/libavcodec.a(h264idct_neon.o)
                0x00186318                ff_h264_idct_add_neon
                0x001863bc                ff_h264_idct_dc_add_neon
                0x00186404                ff_h264_idct_add16_neon
                0x0018646c                ff_h264_idct_add16intra_neon
                0x001864cc                ff_h264_idct_add8_neon
                0x00186540                ff_h264_idct8_add_neon
                0x001867a0                ff_h264_idct8_dc_add_neon
                0x00186838                ff_h264_idct8_add4_neon
 .text          0x001868a0        0x0 /home/chris/work/ffmpeg/refs/ffmpeg-armv7/lib/libavcodec.a(h264pred_init_arm.o)
 .text.unlikely
                0x001868a0      0x180 /home/chris/work/ffmpeg/refs/ffmpeg-armv7/lib/libavcodec.a(h264pred_init_arm.o)
                0x001868a0                ff_h264_pred_init_arm
 .text          0x00186a20      0x548 /home/chris/work/ffmpeg/refs/ffmpeg-armv7/lib/libavcodec.a(h264pred_neon.o)
                0x00186a20                ff_pred16x16_128_dc_neon
                0x00186a28                ff_pred16x16_top_dc_neon
                0x00186a4c                ff_pred16x16_left_dc_neon
                0x00186aac                ff_pred16x16_dc_neon
                0x00186b30                ff_pred16x16_hor_neon
                0x00186b4c                ff_pred16x16_vert_neon
                0x00186b6c                ff_pred16x16_plane_neon
                0x00186c7c                ff_pred8x8_hor_neon
                0x00186c98                ff_pred8x8_vert_neon
                0x00186cb8                ff_pred8x8_plane_neon
                0x00186d98                ff_pred8x8_128_dc_neon
                0x00186da0                ff_pred8x8_top_dc_neon
                0x00186dc4                ff_pred8x8_left_dc_neon
                0x00186e00                ff_pred8x8_dc_neon
                0x00186e74                ff_pred8x8_l0t_dc_neon
                0x00186ebc                ff_pred8x8_l00_dc_neon
                0x00186ee8                ff_pred8x8_0lt_dc_neon
                0x00186f38                ff_pred8x8_0l0_dc_neon
 .text          0x00186f68        0x0 /home/chris/work/ffmpeg/refs/ffmpeg-armv7/lib/libavcodec.a(h264qpel_init_arm.o)
 .text.unlikely
                0x00186f68      0x434 /home/chris/work/ffmpeg/refs/ffmpeg-armv7/lib/libavcodec.a(h264qpel_init_arm.o)
                0x00186f68                ff_h264qpel_init_arm
 .text          0x0018739c     0x1d70 /home/chris/work/ffmpeg/refs/ffmpeg-armv7/lib/libavcodec.a(h264qpel_neon.o)
                0x00188844                ff_put_h264_qpel8_mc10_neon
                0x00188860                ff_put_h264_qpel8_mc20_neon
                0x0018887c                ff_put_h264_qpel8_mc30_neon
                0x00188898                ff_put_h264_qpel8_mc01_neon
                0x001888c4                ff_put_h264_qpel8_mc11_neon
                0x0018891c                ff_put_h264_qpel8_mc21_neon
                0x00188978                ff_put_h264_qpel8_mc31_neon
                0x00188988                ff_put_h264_qpel8_mc02_neon
                0x001889b0                ff_put_h264_qpel8_mc12_neon
                0x00188a08                ff_put_h264_qpel8_mc22_neon
                0x00188a3c                ff_put_h264_qpel8_mc32_neon
                0x00188a48                ff_put_h264_qpel8_mc03_neon
                0x00188a54                ff_put_h264_qpel8_mc13_neon
                0x00188a60                ff_put_h264_qpel8_mc23_neon
                0x00188a6c                ff_put_h264_qpel8_mc33_neon
                0x00188a80                ff_avg_h264_qpel8_mc10_neon
                0x00188a9c                ff_avg_h264_qpel8_mc20_neon
                0x00188ab8                ff_avg_h264_qpel8_mc30_neon
                0x00188ad4                ff_avg_h264_qpel8_mc01_neon
                0x00188b00                ff_avg_h264_qpel8_mc11_neon
                0x00188b58                ff_avg_h264_qpel8_mc21_neon
                0x00188bb4                ff_avg_h264_qpel8_mc31_neon
                0x00188bc4                ff_avg_h264_qpel8_mc02_neon
                0x00188bec                ff_avg_h264_qpel8_mc12_neon
                0x00188c44                ff_avg_h264_qpel8_mc22_neon
                0x00188c78                ff_avg_h264_qpel8_mc32_neon
                0x00188c84                ff_avg_h264_qpel8_mc03_neon
                0x00188c90                ff_avg_h264_qpel8_mc13_neon
                0x00188c9c                ff_avg_h264_qpel8_mc23_neon
                0x00188ca8                ff_avg_h264_qpel8_mc33_neon
                0x00188cbc                ff_put_h264_qpel16_mc10_neon
                0x00188cd4                ff_put_h264_qpel16_mc20_neon
                0x00188cec                ff_put_h264_qpel16_mc30_neon
                0x00188d04                ff_put_h264_qpel16_mc01_neon
                0x00188d30                ff_put_h264_qpel16_mc11_neon
                0x00188d84                ff_put_h264_qpel16_mc21_neon
                0x00188dd4                ff_put_h264_qpel16_mc31_neon
                0x00188de4                ff_put_h264_qpel16_mc02_neon
                0x00188e0c                ff_put_h264_qpel16_mc12_neon
                0x00188e60                ff_put_h264_qpel16_mc22_neon
                0x00188ea0                ff_put_h264_qpel16_mc32_neon
                0x00188eac                ff_put_h264_qpel16_mc03_neon
                0x00188eb8                ff_put_h264_qpel16_mc13_neon
                0x00188ec4                ff_put_h264_qpel16_mc23_neon
                0x00188ed0                ff_put_h264_qpel16_mc33_neon
                0x00188ee4                ff_avg_h264_qpel16_mc10_neon
                0x00188efc                ff_avg_h264_qpel16_mc20_neon
                0x00188f14                ff_avg_h264_qpel16_mc30_neon
                0x00188f2c                ff_avg_h264_qpel16_mc01_neon
                0x00188f58                ff_avg_h264_qpel16_mc11_neon
                0x00188fac                ff_avg_h264_qpel16_mc21_neon
                0x00188ffc                ff_avg_h264_qpel16_mc31_neon
                0x0018900c                ff_avg_h264_qpel16_mc02_neon
                0x00189034                ff_avg_h264_qpel16_mc12_neon
                0x00189088                ff_avg_h264_qpel16_mc22_neon
                0x001890c8                ff_avg_h264_qpel16_mc32_neon
                0x001890d4                ff_avg_h264_qpel16_mc03_neon
                0x001890e0                ff_avg_h264_qpel16_mc13_neon
                0x001890ec                ff_avg_h264_qpel16_mc23_neon
                0x001890f8                ff_avg_h264_qpel16_mc33_neon
 .text          0x0018910c        0x0 /home/chris/work/ffmpeg/refs/ffmpeg-armv7/lib/libavcodec.a(mpegaudiodsp_init_arm.o)
 .text.unlikely
                0x0018910c       0x24 /home/chris/work/ffmpeg/refs/ffmpeg-armv7/lib/libavcodec.a(mpegaudiodsp_init_arm.o)
                0x0018910c                ff_mpadsp_init_arm
 .text          0x00189130        0x0 /home/chris/work/ffmpeg/refs/ffmpeg-armv7/lib/libavcodec.a(mpegvideo_arm.o)
 .text.unlikely
                0x00189130       0x54 /home/chris/work/ffmpeg/refs/ffmpeg-armv7/lib/libavcodec.a(mpegvideo_arm.o)
                0x00189130                ff_MPV_common_init_arm
 .text          0x00189184       0xa8 /home/chris/work/ffmpeg/refs/ffmpeg-armv7/lib/libavcodec.a(mpegvideo_armv5te.o)
 .text.unlikely
                0x0018922c       0x2c /home/chris/work/ffmpeg/refs/ffmpeg-armv7/lib/libavcodec.a(mpegvideo_armv5te.o)
                0x0018922c                ff_MPV_common_init_armv5te
 .text          0x00189258      0x100 /home/chris/work/ffmpeg/refs/ffmpeg-armv7/lib/libavcodec.a(mpegvideo_armv5te_s.o)
                0x00189258                ff_dct_unquantize_h263_armv5te
 .text          0x00189358      0x118 /home/chris/work/ffmpeg/refs/ffmpeg-armv7/lib/libavcodec.a(mpegvideo_neon.o)
                0x00189358                ff_dct_unquantize_h263_inter_neon
                0x00189378                ff_dct_unquantize_h263_neon
                0x00189404                ff_dct_unquantize_h263_intra_neon
 .text          0x00189470        0x0 /home/chris/work/ffmpeg/refs/ffmpeg-armv7/lib/libavcodec.a(videodsp_init_arm.o)
 .text.unlikely
                0x00189470       0x28 /home/chris/work/ffmpeg/refs/ffmpeg-armv7/lib/libavcodec.a(videodsp_init_arm.o)
                0x00189470                ff_videodsp_init_arm
 .text          0x00189498        0x0 /home/chris/work/ffmpeg/refs/ffmpeg-armv7/lib/libavcodec.a(videodsp_init_armv5te.o)
 .text.unlikely
                0x00189498       0x14 /home/chris/work/ffmpeg/refs/ffmpeg-armv7/lib/libavcodec.a(videodsp_init_armv5te.o)
                0x00189498                ff_videodsp_init_armv5te
 .text          0x001894ac      0xc08 /home/chris/work/ffmpeg/refs/ffmpeg-armv7/lib/libavcodec.a(bitstream.o)
                0x00189824                avpriv_align_put_bits
                0x00189870                avpriv_put_string
                0x00189918                avpriv_copy_bits
                0x00189b20                ff_free_vlc
                0x00189b28                ff_init_vlc_sparse
 .text          0x0018a0b4      0x1fc /home/chris/work/ffmpeg/refs/ffmpeg-armv7/lib/libavcodec.a(cabac.o)
                0x0018a0b4                ff_init_cabac_encoder
                0x0018a0fc                ff_init_cabac_decoder
                0x0018a160                ff_init_cabac_states
 .text          0x0018a2b0      0x438 /home/chris/work/ffmpeg/refs/ffmpeg-armv7/lib/libavcodec.a(dct.o)
 .text.unlikely
                0x0018a6e8      0x1b8 /home/chris/work/ffmpeg/refs/ffmpeg-armv7/lib/libavcodec.a(dct.o)
                0x0018a6e8                ff_dct_init
                0x0018a884                ff_dct_end
 .text          0x0018a8a0     0x1004 /home/chris/work/ffmpeg/refs/ffmpeg-armv7/lib/libavcodec.a(dct32_fixed.o)
                0x0018a8a0                ff_dct32_fixed
 .text          0x0018b8a4      0xc7c /home/chris/work/ffmpeg/refs/ffmpeg-armv7/lib/libavcodec.a(dct32_float.o)
                0x0018b8a4                ff_dct32_float
 .text          0x0018c520    0x2ad48 /home/chris/work/ffmpeg/refs/ffmpeg-armv7/lib/libavcodec.a(dsputil.o)
                0x0018f288                ff_put_pixels8x8_8_c
                0x00191884                ff_gmc_c
                0x001a21a4                ff_put_pixels16x16_8_c
                0x001a26b0                ff_avg_pixels8x8_8_c
                0x001a294c                ff_avg_pixels16x16_8_c
                0x001b0804                ff_put_pixels8x8_9_c
                0x001b09d8                ff_avg_pixels8x8_9_c
                0x001b0da8                ff_put_pixels16x16_9_c
                0x001b0e38                ff_avg_pixels16x16_9_c
                0x001b0f68                ff_put_pixels8x8_10_c
                0x001b113c                ff_avg_pixels8x8_10_c
                0x001b1508                ff_put_pixels16x16_10_c
                0x001b1598                ff_avg_pixels16x16_10_c
                0x001b16c8                ff_put_pixels8x8_12_c
                0x001b189c                ff_avg_pixels8x8_12_c
                0x001b1c68                ff_put_pixels16x16_12_c
                0x001b1cf8                ff_avg_pixels16x16_12_c
                0x001b1e28                ff_put_pixels8x8_14_c
                0x001b1ffc                ff_avg_pixels8x8_14_c
                0x001b23c8                ff_put_pixels16x16_14_c
                0x001b2458                ff_avg_pixels16x16_14_c
                0x001b2588                ff_init_scantable
                0x001b25e0                ff_init_scantable_permutation
                0x001b2714                ff_put_qpel8_mc11_old_c
                0x001b290c                ff_put_qpel8_mc31_old_c
                0x001b2b08                ff_put_qpel8_mc13_old_c
                0x001b2cf8                ff_put_qpel8_mc33_old_c
                0x001b2ef0                ff_put_qpel8_mc12_old_c
                0x001b30c0                ff_put_qpel8_mc32_old_c
                0x001b3294                ff_put_qpel16_mc11_old_c
                0x001b33a8                ff_put_qpel16_mc31_old_c
                0x001b34c8                ff_put_qpel16_mc13_old_c
                0x001b35dc                ff_put_qpel16_mc33_old_c
                0x001b36fc                ff_put_qpel16_mc12_old_c
                0x001b3878                ff_put_qpel16_mc32_old_c
                0x001b3968                ff_put_no_rnd_qpel8_mc11_old_c
                0x001b3b60                ff_put_no_rnd_qpel8_mc31_old_c
                0x001b3d5c                ff_put_no_rnd_qpel8_mc13_old_c
                0x001b3f4c                ff_put_no_rnd_qpel8_mc33_old_c
                0x001b4144                ff_put_no_rnd_qpel8_mc12_old_c
                0x001b4590                ff_put_no_rnd_qpel8_mc32_old_c
                0x001b49dc                ff_put_no_rnd_qpel16_mc11_old_c
                0x001b4af0                ff_put_no_rnd_qpel16_mc31_old_c
                0x001b4c10                ff_put_no_rnd_qpel16_mc13_old_c
                0x001b4d24                ff_put_no_rnd_qpel16_mc33_old_c
                0x001b4e44                ff_put_no_rnd_qpel16_mc12_old_c
                0x001b4fc0                ff_put_no_rnd_qpel16_mc32_old_c
                0x001b5140                ff_avg_qpel8_mc11_old_c
                0x001b5338                ff_avg_qpel8_mc31_old_c
                0x001b5534                ff_avg_qpel8_mc13_old_c
                0x001b5724                ff_avg_qpel8_mc33_old_c
                0x001b591c                ff_avg_qpel8_mc12_old_c
                0x001b5efc                ff_avg_qpel8_mc32_old_c
                0x001b64dc                ff_avg_qpel16_mc11_old_c
                0x001b65f0                ff_avg_qpel16_mc31_old_c
                0x001b6710                ff_avg_qpel16_mc13_old_c
                0x001b6824                ff_avg_qpel16_mc33_old_c
                0x001b6944                ff_avg_qpel16_mc12_old_c
                0x001b6b30                ff_avg_qpel16_mc32_old_c
                0x001b6d20                ff_set_cmp
                0x001b725c                ff_check_alignment
 .text.unlikely
                0x001b7268     0x1c70 /home/chris/work/ffmpeg/refs/ffmpeg-armv7/lib/libavcodec.a(dsputil.o)
                0x001b7268                ff_dsputil_static_init
                0x001b72cc                ff_dsputil_init
                0x001b8ed4                dsputil_init
 .text          0x001b8ed8     0x3248 /home/chris/work/ffmpeg/refs/ffmpeg-armv7/lib/libavcodec.a(error_resilience.o)
                0x001b8ed8                ff_er_frame_start
                0x001b8f20                ff_er_add_slice
                0x001b91a4                ff_er_frame_end
 .text.unlikely
                0x001bc120      0xd30 /home/chris/work/ffmpeg/refs/ffmpeg-armv7/lib/libavcodec.a(error_resilience.o)
 .text          0x001bce50     0x1ca8 /home/chris/work/ffmpeg/refs/ffmpeg-armv7/lib/libavcodec.a(faanidct.o)
                0x001bce50                ff_faanidct
                0x001bd794                ff_faanidct_add
                0x001be164                ff_faanidct_put
 .text          0x001beaf8     0x1ff0 /home/chris/work/ffmpeg/refs/ffmpeg-armv7/lib/libavcodec.a(fft_float.o)
 .text.unlikely
                0x001c0ae8      0x3d0 /home/chris/work/ffmpeg/refs/ffmpeg-armv7/lib/libavcodec.a(fft_float.o)
                0x001c0b54                ff_init_ff_cos_tabs
                0x001c0c0c                ff_fft_init
                0x001c0e9c                ff_fft_end
 .text          0x001c0eb8      0x34c /home/chris/work/ffmpeg/refs/ffmpeg-armv7/lib/libavcodec.a(fmtconvert.o)
                0x001c0ff4                ff_float_interleave_c
                0x001c10b0                float_interleave
                0x001c1168                float_interleave_noscale
 .text.unlikely
                0x001c1204       0x48 /home/chris/work/ffmpeg/refs/ffmpeg-armv7/lib/libavcodec.a(fmtconvert.o)
                0x001c1204                ff_fmt_convert_init
 .text          0x001c124c        0x0 /home/chris/work/ffmpeg/refs/ffmpeg-armv7/lib/libavcodec.a(golomb.o)
 .text          0x001c124c      0xd88 /home/chris/work/ffmpeg/refs/ffmpeg-armv7/lib/libavcodec.a(h263.o)
                0x001c124c                ff_h263_update_motion_val
                0x001c1444                ff_h263_pred_dc
                0x001c1534                ff_h263_loop_filter
                0x001c188c                ff_h263_pred_acdc
                0x001c1ca4                ff_h263_pred_motion
                0x001c1fb0                ff_h263_get_gob_height
 .text          0x001c1fd4     0x1818 /home/chris/work/ffmpeg/refs/ffmpeg-armv7/lib/libavcodec.a(imgconvert.o)
                0x001c24a8                avcodec_get_chroma_sub_sample
                0x001c2514                avcodec_get_pix_fmt_loss
                0x001c2540                avcodec_find_best_pix_fmt_of_2
                0x001c263c                avcodec_find_best_pix_fmt
                0x001c26c0                avcodec_find_best_pix_fmt2
                0x001c26c4                avcodec_find_best_pix_fmt_of_list
                0x001c2714                ff_shrink22
                0x001c28cc                ff_shrink44
                0x001c29f0                ff_shrink88
                0x001c2e54                av_picture_crop
                0x001c2fc4                av_picture_pad
                0x001c3348                avpicture_deinterlace
 .text          0x001c37ec     0x1c4c /home/chris/work/ffmpeg/refs/ffmpeg-armv7/lib/libavcodec.a(jrevdct.o)
                0x001c37ec                ff_j_rev_dct
                0x001c4930                ff_j_rev_dct4
                0x001c53c0                ff_j_rev_dct2
                0x001c5424                ff_j_rev_dct1
 .text          0x001c5438        0x0 /home/chris/work/ffmpeg/refs/ffmpeg-armv7/lib/libavcodec.a(kbdwin.o)
 .text.unlikely
                0x001c5438      0x138 /home/chris/work/ffmpeg/refs/ffmpeg-armv7/lib/libavcodec.a(kbdwin.o)
                0x001c5438                ff_kbd_window_init
 .text          0x001c5570      0x40c /home/chris/work/ffmpeg/refs/ffmpeg-armv7/lib/libavcodec.a(mdct_float.o)
                0x001c5570                ff_imdct_half_c
                0x001c56b4                ff_imdct_calc_c
                0x001c5714                ff_mdct_calc_c
 .text.unlikely
                0x001c5980      0x188 /home/chris/work/ffmpeg/refs/ffmpeg-armv7/lib/libavcodec.a(mdct_float.o)
                0x001c5980                ff_mdct_end
                0x001c599c                ff_mdct_init
 .text          0x001c5b08       0x7c /home/chris/work/ffmpeg/refs/ffmpeg-armv7/lib/libavcodec.a(mjpeg.o)
                0x001c5b08                ff_mjpeg_build_huffman_codes
 .text          0x001c5b84       0x84 /home/chris/work/ffmpeg/refs/ffmpeg-armv7/lib/libavcodec.a(mpegaudio.o)
                0x001c5b84                ff_mpa_l2_select_table
 .text          0x001c5c08        0x0 /home/chris/work/ffmpeg/refs/ffmpeg-armv7/lib/libavcodec.a(mpegaudiodsp_data.o)
 .text          0x001c5c08      0x1c4 /home/chris/work/ffmpeg/refs/ffmpeg-armv7/lib/libavcodec.a(rdft.o)
 .text.unlikely
                0x001c5dd0      0x178 /home/chris/work/ffmpeg/refs/ffmpeg-armv7/lib/libavcodec.a(rdft.o)
                0x001c5dd0                ff_rdft_init
                0x001c5f3c                ff_rdft_end
 .text          0x001c5f48      0x7d4 /home/chris/work/ffmpeg/refs/ffmpeg-armv7/lib/libavcodec.a(sbrdsp.o)
 .text.unlikely
                0x001c671c      0x134 /home/chris/work/ffmpeg/refs/ffmpeg-armv7/lib/libavcodec.a(sbrdsp.o)
                0x001c671c                ff_sbrdsp_init
 .text          0x001c6850     0x5f38 /home/chris/work/ffmpeg/refs/ffmpeg-armv7/lib/libavcodec.a(simple_idct.o)
                0x001c6850                ff_simple_idct_put_8
                0x001c6dd0                ff_simple_idct_add_8
                0x001c7394                ff_simple_idct_8
                0x001c7820                ff_simple_idct_put_10
                0x001c7e28                ff_simple_idct_add_10
                0x001c8460                ff_simple_idct_10
                0x001c8984                ff_simple_idct248_put
                0x001c9a58                ff_simple_idct84_add
                0x001caa94                ff_simple_idct48_add
                0x001cbb8c                ff_simple_idct44_add
                0x001cc23c                ff_prores_idct
 .text          0x001cc788        0x0 /home/chris/work/ffmpeg/refs/ffmpeg-armv7/lib/libavcodec.a(sinewin.o)
 .text.unlikely
                0x001cc788       0x90 /home/chris/work/ffmpeg/refs/ffmpeg-armv7/lib/libavcodec.a(sinewin.o)
                0x001cc788                ff_sine_window_init
                0x001cc7f8                ff_init_ff_sine_windows
 .text          0x001cc818      0x21c /home/chris/work/ffmpeg/refs/ffmpeg-armv7/lib/libavcodec.a(aac_ac3_parser.o)
                0x001cc818                ff_aac_ac3_parse
 .text          0x001cca34     0x3cb8 /home/chris/work/ffmpeg/refs/ffmpeg-armv7/lib/libavcodec.a(aacps.o)
                0x001ce1e8                ff_ps_read_data
                0x001cf1c0                ff_ps_apply
 .text.unlikely
                0x001d06f0      0xb20 /home/chris/work/ffmpeg/refs/ffmpeg-armv7/lib/libavcodec.a(aacps.o)
                0x001d07c0                ff_ps_init
                0x001d1200                ff_ps_ctx_init
 .text          0x001d1210      0x678 /home/chris/work/ffmpeg/refs/ffmpeg-armv7/lib/libavcodec.a(aacpsdsp.o)
 .text.unlikely
                0x001d1888       0x8c /home/chris/work/ffmpeg/refs/ffmpeg-armv7/lib/libavcodec.a(aacpsdsp.o)
                0x001d1888                ff_psdsp_init
 .text          0x001d1914      0x7a8 /home/chris/work/ffmpeg/refs/ffmpeg-armv7/lib/libavcodec.a(ac3.o)
                0x001d1914                ff_ac3_bit_alloc_calc_psd
                0x001d1a14                ff_ac3_bit_alloc_calc_mask
 .text.unlikely
                0x001d20bc       0x48 /home/chris/work/ffmpeg/refs/ffmpeg-armv7/lib/libavcodec.a(ac3.o)
                0x001d20bc                ff_ac3_common_init
 .text          0x001d2104        0x0 /home/chris/work/ffmpeg/refs/ffmpeg-armv7/lib/libavcodec.a(aacpsdsp_init_arm.o)
 .text.unlikely
                0x001d2104       0x74 /home/chris/work/ffmpeg/refs/ffmpeg-armv7/lib/libavcodec.a(aacpsdsp_init_arm.o)
                0x001d2104                ff_psdsp_init_arm
 .text          0x001d2178      0x37c /home/chris/work/ffmpeg/refs/ffmpeg-armv7/lib/libavcodec.a(aacpsdsp_neon.o)
                0x001d2178                ff_ps_add_squares_neon
                0x001d21d4                ff_ps_mul_pair_single_neon
                0x001d2280                ff_ps_hybrid_synthesis_deint_neon
                0x001d2360                ff_ps_hybrid_analysis_neon
                0x001d2464                ff_ps_stereo_interpolate_neon
 .text          0x001d24f4       0x28 /home/chris/work/ffmpeg/refs/ffmpeg-armv7/lib/libavcodec.a(ac3dsp_arm.o)
                0x001d24f4                ff_ac3_update_bap_counts_arm
 .text          0x001d251c       0xf4 /home/chris/work/ffmpeg/refs/ffmpeg-armv7/lib/libavcodec.a(ac3dsp_armv6.o)
                0x001d251c                ff_ac3_bit_alloc_calc_bap_armv6
 .text          0x001d2610      0x208 /home/chris/work/ffmpeg/refs/ffmpeg-armv7/lib/libavcodec.a(dsputil_init_arm.o)
 .text.unlikely
                0x001d2818      0x224 /home/chris/work/ffmpeg/refs/ffmpeg-armv7/lib/libavcodec.a(dsputil_init_arm.o)
                0x001d2818                ff_dsputil_init_arm
 .text          0x001d2a3c        0x0 /home/chris/work/ffmpeg/refs/ffmpeg-armv7/lib/libavcodec.a(dsputil_init_armv5te.o)
 .text.unlikely
                0x001d2a3c       0x64 /home/chris/work/ffmpeg/refs/ffmpeg-armv7/lib/libavcodec.a(dsputil_init_armv5te.o)
                0x001d2a3c                ff_dsputil_init_armv5te
 .text          0x001d2aa0        0x0 /home/chris/work/ffmpeg/refs/ffmpeg-armv7/lib/libavcodec.a(dsputil_init_armv6.o)
 .text.unlikely
                0x001d2aa0      0x1ec /home/chris/work/ffmpeg/refs/ffmpeg-armv7/lib/libavcodec.a(dsputil_init_armv6.o)
                0x001d2aa0                ff_dsputil_init_armv6
 .text          0x001d2c8c        0x0 /home/chris/work/ffmpeg/refs/ffmpeg-armv7/lib/libavcodec.a(dsputil_init_neon.o)
 .text.unlikely
                0x001d2c8c      0x2b8 /home/chris/work/ffmpeg/refs/ffmpeg-armv7/lib/libavcodec.a(dsputil_init_neon.o)
                0x001d2c8c                ff_dsputil_init_neon
 .text          0x001d2f44      0xe10 /home/chris/work/ffmpeg/refs/ffmpeg-armv7/lib/libavcodec.a(dsputil_neon.o)
                0x001d2f44                ff_clear_block_neon
                0x001d2f6c                ff_clear_blocks_neon
                0x001d3034                ff_put_h264_qpel16_mc00_neon
                0x001d3038                ff_put_pixels16_neon
                0x001d3074                ff_put_pixels16_x2_neon
                0x001d30a8                ff_put_pixels16_x2_no_rnd_neon
                0x001d30dc                ff_put_pixels16_y2_neon
                0x001d3128                ff_put_pixels16_y2_no_rnd_neon
                0x001d3174                ff_put_pixels16_xy2_neon
                0x001d3234                ff_put_pixels16_xy2_no_rnd_neon
                0x001d3318                ff_avg_h264_qpel16_mc00_neon
                0x001d331c                ff_avg_pixels16_neon
                0x001d337c                ff_avg_pixels16_x2_neon
                0x001d33c4                ff_avg_pixels16_x2_no_rnd_neon
                0x001d340c                ff_avg_pixels16_y2_neon
                0x001d3480                ff_avg_pixels16_y2_no_rnd_neon
                0x001d34f4                ff_avg_pixels16_xy2_neon
                0x001d35d4                ff_avg_pixels16_xy2_no_rnd_neon
                0x001d36d8                ff_put_h264_qpel8_mc00_neon
                0x001d36dc                ff_put_pixels8_neon
                0x001d3718                ff_put_pixels8_x2_neon
                0x001d374c                ff_put_pixels8_x2_no_rnd_neon
                0x001d3780                ff_put_pixels8_y2_neon
                0x001d37cc                ff_put_pixels8_y2_no_rnd_neon
                0x001d3818                ff_put_pixels8_xy2_neon
                0x001d38a4                ff_put_pixels8_xy2_no_rnd_neon
                0x001d3944                ff_avg_h264_qpel8_mc00_neon
                0x001d3948                ff_avg_pixels8_neon
                0x001d39a8                ff_avg_pixels8_x2_neon
                0x001d39ec                ff_avg_pixels8_y2_neon
                0x001d3a58                ff_avg_pixels8_xy2_neon
                0x001d3b04                ff_put_pixels_clamped_neon
                0x001d3b58                ff_put_signed_pixels_clamped_neon
                0x001d3be0                ff_add_pixels_clamped_neon
                0x001d3c88                ff_vector_clipf_neon
                0x001d3cdc                ff_apply_window_int16_neon
                0x001d3d24                ff_vector_clip_int32_neon
 .text          0x001d3d54        0x0 /home/chris/work/ffmpeg/refs/ffmpeg-armv7/lib/libavcodec.a(fft_init_arm.o)
 .text.unlikely
                0x001d3d54       0xa0 /home/chris/work/ffmpeg/refs/ffmpeg-armv7/lib/libavcodec.a(fft_init_arm.o)
                0x001d3d54                ff_fft_init_arm
                0x001d3dd0                ff_rdft_init_arm
 .text          0x001d3e00      0xa00 /home/chris/work/ffmpeg/refs/ffmpeg-armv7/lib/libavcodec.a(fft_neon.o)
                0x001d4784                ff_fft_calc_neon
                0x001d47a4                ff_fft_permute_neon
 .text          0x001d4800        0x0 /home/chris/work/ffmpeg/refs/ffmpeg-armv7/lib/libavcodec.a(fmtconvert_init_arm.o)
 .text.unlikely
                0x001d4800       0x7c /home/chris/work/ffmpeg/refs/ffmpeg-armv7/lib/libavcodec.a(fmtconvert_init_arm.o)
                0x001d4800                ff_fmt_convert_init_arm
 .text          0x001d487c      0x558 /home/chris/work/ffmpeg/refs/ffmpeg-armv7/lib/libavcodec.a(fmtconvert_neon.o)
                0x001d487c                ff_float_to_int16_neon
                0x001d4920                ff_float_to_int16_interleave_neon
                0x001d4d84                ff_int32_to_float_fmul_scalar_neon
 .text          0x001d4dd4       0xa4 /home/chris/work/ffmpeg/refs/ffmpeg-armv7/lib/libavcodec.a(fmtconvert_vfp.o)
                0x001d4dd4                ff_float_to_int16_vfp
 .text          0x001d4e78       0xe8 /home/chris/work/ffmpeg/refs/ffmpeg-armv7/lib/libavcodec.a(int_neon.o)
                0x001d4e78                ff_scalarproduct_int16_neon
                0x001d4ed8                ff_scalarproduct_and_madd_int16_neon
 .text          0x001d4f60      0x384 /home/chris/work/ffmpeg/refs/ffmpeg-armv7/lib/libavcodec.a(jrevdct_arm.o)
                0x001d4f60                ff_j_rev_dct_arm
 .text          0x001d52e4      0x3b4 /home/chris/work/ffmpeg/refs/ffmpeg-armv7/lib/libavcodec.a(mdct_neon.o)
                0x001d52e4                ff_imdct_half_neon
                0x001d542c                ff_imdct_calc_neon
                0x001d549c                ff_mdct_calc_neon
 .text          0x001d5698      0x3b4 /home/chris/work/ffmpeg/refs/ffmpeg-armv7/lib/libavcodec.a(mpegaudiodsp_fixed_armv6.o)
                0x001d5698                ff_mpadsp_apply_window_fixed_armv6
 .text          0x001d5a4c      0x1d4 /home/chris/work/ffmpeg/refs/ffmpeg-armv7/lib/libavcodec.a(rdft_neon.o)
                0x001d5a4c                ff_rdft_calc_neon
 .text          0x001d5c20        0x0 /home/chris/work/ffmpeg/refs/ffmpeg-armv7/lib/libavcodec.a(sbrdsp_init_arm.o)
 .text.unlikely
                0x001d5c20      0x104 /home/chris/work/ffmpeg/refs/ffmpeg-armv7/lib/libavcodec.a(sbrdsp_init_arm.o)
                0x001d5c20                ff_sbrdsp_init_arm
 .text          0x001d5d24      0x57c /home/chris/work/ffmpeg/refs/ffmpeg-armv7/lib/libavcodec.a(sbrdsp_neon.o)
                0x001d5d24                ff_sbr_sum64x5_neon
                0x001d5d70                ff_sbr_sum_square_neon
                0x001d5d94                ff_sbr_neg_odd_64_neon
                0x001d5e00                ff_sbr_qmf_pre_shuffle_neon
                0x001d5e98                ff_sbr_qmf_post_shuffle_neon
                0x001d5efc                ff_sbr_qmf_deint_neg_neon
                0x001d5f34                ff_sbr_qmf_deint_bfly_neon
                0x001d5f7c                ff_sbr_hf_g_filt_neon
                0x001d5fc0                ff_sbr_hf_gen_neon
                0x001d603c                ff_sbr_autocorrelate_neon
                0x001d6114                ff_sbr_hf_apply_noise_0_neon
                0x001d61c4                ff_sbr_hf_apply_noise_1_neon
                0x001d6280                ff_sbr_hf_apply_noise_2_neon
                0x001d6288                ff_sbr_hf_apply_noise_3_neon
 .text          0x001d62a0      0x364 /home/chris/work/ffmpeg/refs/ffmpeg-armv7/lib/libavcodec.a(simple_idct_arm.o)
                0x001d62a0                ff_simple_idct_arm
 .text          0x001d6604      0xbcc /home/chris/work/ffmpeg/refs/ffmpeg-armv7/lib/libavcodec.a(simple_idct_armv5te.o)
                0x001d7088                ff_simple_idct_armv5te
                0x001d70ec                ff_simple_idct_add_armv5te
                0x001d7158                ff_simple_idct_put_armv5te
 .text          0x001d71d0      0x6f4 /home/chris/work/ffmpeg/refs/ffmpeg-armv7/lib/libavcodec.a(simple_idct_armv6.o)
                0x001d7624                ff_simple_idct_armv6
                0x001d76f8                ff_simple_idct_add_armv6
                0x001d77d4                ff_simple_idct_put_armv6
 .text          0x001d7900      0x500 /home/chris/work/ffmpeg/refs/ffmpeg-armv7/lib/libavcodec.a(simple_idct_neon.o)
                0x001d7bb4                ff_simple_idct_put_neon
                0x001d7cb8                ff_simple_idct_add_neon
                0x001d7d78                ff_simple_idct_neon
 .text          0x001d7e00       0x14 /home/chris/work/ffmpeg/refs/ffmpeg-armv7/lib/libavcodec.a(videodsp_armv5te.o)
                0x001d7e00                ff_prefetch_arm
 .text          0x001d7e20     0x1660 /home/chris/work/ffmpeg/refs/ffmpeg-armv7/lib/libavcodec.a(dsputil_arm.o)
                0x001d7e20                ff_put_pixels16_arm
                0x001d7f40                ff_put_pixels8_arm
                0x001d8060                ff_put_pixels8_x2_arm
                0x001d8200                ff_put_no_rnd_pixels8_x2_arm
                0x001d83a0                ff_put_pixels8_y2_arm
                0x001d86a0                ff_put_no_rnd_pixels8_y2_arm
                0x001d89a0                ff_put_pixels8_xy2_arm
                0x001d8e80                ff_put_no_rnd_pixels8_xy2_arm
                0x001d9360                ff_add_pixels_clamped_arm
 .text          0x001d9480      0x8a4 /home/chris/work/ffmpeg/refs/ffmpeg-armv7/lib/libavcodec.a(dsputil_armv6.o)
                0x001d9480                ff_avg_pixels16_armv6
                0x001d972c                ff_avg_pixels8_armv6
                0x001d9498                ff_put_pixels16_x2_armv6
                0x001d9568                ff_put_pixels8_x2_armv6
                0x001d94b0                ff_put_pixels16_y2_armv6
                0x001d95f8                ff_put_pixels8_y2_armv6
                0x001d94c8                ff_put_pixels16_x2_no_rnd_armv6
                0x001d9680                ff_put_pixels8_x2_no_rnd_armv6
                0x001d94e0                ff_put_pixels16_y2_no_rnd_armv6
                0x001d96dc                ff_put_pixels8_y2_no_rnd_armv6
                0x001d94f8                ff_put_pixels16_armv6
                0x001d953c                ff_put_pixels8_armv6
                0x001d97dc                ff_add_pixels_clamped_armv6
                0x001d9838                ff_get_pixels_armv6
                0x001d987c                ff_diff_pixels_armv6
                0x001d98ec                ff_pix_abs16_armv6
                0x001d994c                ff_pix_abs16_x2_armv6
                0x001d9a14                ff_pix_abs16_y2_armv6
                0x001d9b54                ff_pix_abs8_armv6
                0x001d9bb8                ff_sse16_armv6
                0x001d9c70                ff_pix_norm1_armv6
                0x001d9cd4                ff_pix_sum_armv6
 .text          0x001d9d24     0x3424 /home/chris/work/ffmpeg/refs/ffmpeg-armv7/lib/libswscale.a(swscale.o)
                0x001dc31c                ff_getSwsFunc
                0x001dc724                sws_scale
 .text          0x001dd148     0x1530 /home/chris/work/ffmpeg/refs/ffmpeg-armv7/lib/libswscale.a(utils.o)
                0x001dd148                swscale_version
                0x001dd154                swscale_configuration
                0x001dd164                swscale_license
                0x001dd178                sws_isSupportedInput
                0x001dd19c                sws_isSupportedOutput
                0x001dd1c4                sws_format_name
                0x001dd1e8                sws_setColorspaceDetails
                0x001dd45c                sws_getColorspaceDetails
                0x001dd570                sws_alloc_context
                0x001dd5a0                sws_allocVec
                0x001dd614                sws_getConstVec
                0x001dd658                sws_getIdentityVec
                0x001dd66c                sws_scaleVec
                0x001dd6a0                sws_normalizeVec
                0x001dd6f0                sws_getGaussianVec
                0x001dd7d8                sws_shiftVec
                0x001dd880                sws_addVec
                0x001dd978                sws_subVec
                0x001dda70                sws_convVec
                0x001ddb1c                sws_cloneVec
                0x001ddb64                sws_printVec2
                0x001ddca4                sws_freeVec
                0x001ddcc8                sws_getDefaultFilter
                0x001ddf58                sws_freeFilter
                0x001ddfb0                sws_freeContext
                0x001de124                sws_getContext
                0x001de364                sws_getCachedContext
 .text.unlikely
                0x001de678     0x39e0 /home/chris/work/ffmpeg/refs/ffmpeg-armv7/lib/libswscale.a(utils.o)
                0x001dff8c                sws_init_context
 .text          0x001e2058     0x6610 /home/chris/work/ffmpeg/refs/ffmpeg-armv7/lib/libswscale.a(yuv2rgb.o)
                0x001e8354                sws_getCoefficients
                0x001e8374                ff_yuv2rgb_get_func_ptr
 .text.unlikely
                0x001e8668     0x13c0 /home/chris/work/ffmpeg/refs/ffmpeg-armv7/lib/libswscale.a(yuv2rgb.o)
                0x001e8740                ff_yuv2rgb_c_init_tables
 .text          0x001e9a28     0x6fcc /home/chris/work/ffmpeg/refs/ffmpeg-armv7/lib/libswscale.a(input.o)
 .text.unlikely
                0x001f09f4     0x1184 /home/chris/work/ffmpeg/refs/ffmpeg-armv7/lib/libswscale.a(input.o)
                0x001f09f4                ff_sws_init_input_funcs
 .text          0x001f1b78       0x20 /home/chris/work/ffmpeg/refs/ffmpeg-armv7/lib/libswscale.a(options.o)
                0x001f1b88                sws_get_class
 .text          0x001f1b98     0xe77c /home/chris/work/ffmpeg/refs/ffmpeg-armv7/lib/libswscale.a(output.o)
 .text.unlikely
                0x00200314      0xd3c /home/chris/work/ffmpeg/refs/ffmpeg-armv7/lib/libswscale.a(output.o)
                0x00200314                ff_sws_init_output_funcs
 .text          0x00201050     0x1b38 /home/chris/work/ffmpeg/refs/ffmpeg-armv7/lib/libswscale.a(rgb2rgb.o)
                0x00201c70                rgb24toyv12_c
                0x002024f8                rgb32to24
                0x00202530                rgb24to32
                0x00202584                rgb16tobgr32
                0x002025e8                rgb12to15
                0x0020264c                rgb16to24
                0x002026a8                rgb16tobgr16
                0x002026e8                rgb16tobgr15
                0x00202730                rgb15tobgr32
                0x00202794                rgb15to24
                0x002027f0                rgb15tobgr16
                0x00202838                rgb15tobgr15
                0x00202884                rgb12tobgr12
                0x002028cc                shuffle_bytes_0321
                0x00202918                shuffle_bytes_1230
                0x00202960                shuffle_bytes_3012
                0x002029ac                shuffle_bytes_3210
                0x002029f4                rgb48tobgr48_nobswap
                0x00202a30                rgb48tobgr48_bswap
                0x00202a78                rgb64tobgr48_nobswap
                0x00202ab4                rgb64tobgr48_bswap
                0x00202afc                rgb64to48_nobswap
                0x00202b3c                rgb64to48_bswap
 .text.unlikely
                0x00202b88      0x390 /home/chris/work/ffmpeg/refs/ffmpeg-armv7/lib/libswscale.a(rgb2rgb.o)
                0x00202b88                sws_rgb2rgb_init
 .text          0x00202f18     0x53d8 /home/chris/work/ffmpeg/refs/ffmpeg-armv7/lib/libswscale.a(swscale_unscaled.o)
                0x00204028                sws_convertPalette8ToPacked32
                0x00204058                sws_convertPalette8ToPacked24
                0x00206fb8                ff_get_unscaled_swscale
 .text          0x002082f0     0x2158 /home/chris/work/ffmpeg/refs/ffmpeg-armv7/lib/libswresample.a(swresample.o)
                0x0020845c                swresample_version
                0x00208464                swresample_configuration
                0x00208474                swresample_license
                0x00208488                swr_set_channel_mapping
                0x002084ac                swr_get_class
                0x002084bc                swr_alloc_set_opts
                0x00208650                swri_realloc_audio
                0x00209790                swr_convert
                0x00209ea0                swr_drop_output
                0x00209f00                swr_inject_silence
                0x0020a078                swr_get_delay
                0x0020a0f8                swr_set_compensation
                0x0020a198                swr_next_pts
 .text.unlikely
                0x0020a448      0xb68 /home/chris/work/ffmpeg/refs/ffmpeg-armv7/lib/libswresample.a(swresample.o)
                0x0020a498                swr_alloc
                0x0020a4c8                swr_free
                0x0020a588                swr_init
 .text          0x0020afb0     0x1a28 /home/chris/work/ffmpeg/refs/ffmpeg-armv7/lib/libswresample.a(audioconvert.o)
                0x0020c5b8                swri_audio_convert_alloc
                0x0020c718                swri_audio_convert_free
                0x0020c71c                swri_audio_convert
 .text          0x0020c9d8      0xf30 /home/chris/work/ffmpeg/refs/ffmpeg-armv7/lib/libswresample.a(dither.o)
                0x0020c9d8                swri_get_dither
                0x0020cc5c                swri_dither_init
                0x0020d02c                swri_noise_shaping_int16
                0x0020d290                swri_noise_shaping_int32
                0x0020d4f0                swri_noise_shaping_float
                0x0020d6fc                swri_noise_shaping_double
 .text          0x0020d908      0xdf0 /home/chris/work/ffmpeg/refs/ffmpeg-armv7/lib/libswresample.a(rematrix.o)
                0x0020dfcc                swr_set_matrix
                0x0020e094                swri_rematrix
 .text.unlikely
                0x0020e6f8     0x1880 /home/chris/work/ffmpeg/refs/ffmpeg-armv7/lib/libswresample.a(rematrix.o)
                0x0020f5f4                swri_rematrix_init
                0x0020ff50                swri_rematrix_free
 .text          0x0020ff78     0x2398 /home/chris/work/ffmpeg/refs/ffmpeg-armv7/lib/libswresample.a(resample.o)
                0x002109cc                swri_resample_int16
                0x00211008                swri_resample_int32
                0x002116b8                swri_resample_float
                0x00211c30                swri_resample_double
 .text          0x00212310       0x4c /home/chris/work/ffmpeg/refs/ffmpeg-armv7/lib/libswresample.a(audio_convert_init.o)
 .text.unlikely
                0x0021235c       0xbc /home/chris/work/ffmpeg/refs/ffmpeg-armv7/lib/libswresample.a(audio_convert_init.o)
                0x0021235c                swri_audio_convert_init_arm
 .text          0x00212418      0x504 /home/chris/work/ffmpeg/refs/ffmpeg-armv7/lib/libswresample.a(audio_convert_neon.o)
                0x00212418                swri_oldapi_conv_flt_to_s16_neon
                0x002124bc                swri_oldapi_conv_fltp_to_s16_2ch_neon
                0x002125b0                swri_oldapi_conv_fltp_to_s16_nch_neon
 .text          0x0021291c      0x6e8 /home/chris/work/ffmpeg/refs/ffmpeg-armv7/lib/libavutil.a(avstring.o)
                0x0021291c                av_strstart
                0x00212984                av_stristart
                0x00212a20                av_stristr
                0x00212a68                av_strnstr
                0x00212ad0                av_strlcpy
                0x00212b54                av_strlcat
                0x00212ba0                av_strlcatf
                0x00212bf4                av_asprintf
                0x00212c88                av_d2str
                0x00212ccc                av_get_token
                0x00212dfc                av_strtok
                0x00212e84                av_strcasecmp
                0x00212ed0                av_strncasecmp
                0x00212f24                av_basename
                0x00212f44                av_dirname
                0x00212f80                av_escape
 .text          0x00213004      0x39c /home/chris/work/ffmpeg/refs/ffmpeg-armv7/lib/libavutil.a(base64.o)
                0x00213004                av_base64_decode
                0x00213264                av_base64_encode
 .text          0x002133a0      0x860 /home/chris/work/ffmpeg/refs/ffmpeg-armv7/lib/libavutil.a(bprint.o)
                0x00213460                av_bprint_init
                0x002134b0                av_bprint_init_for_buffer
                0x002134c8                av_bprintf
                0x0021358c                av_bprint_chars
                0x00213640                av_bprint_strftime
                0x002137fc                av_bprint_get_buffer
                0x00213860                av_bprint_clear
                0x0021387c                av_bprint_finalize
                0x00213920                av_bprint_escape
 .text          0x00213c00      0x770 /home/chris/work/ffmpeg/refs/ffmpeg-armv7/lib/libavutil.a(channel_layout.o)
                0x00213c00                av_get_channel_layout_nb_channels
                0x00213ca0                av_bprint_channel_layout
                0x00213e30                av_get_channel_layout_string
                0x00213e70                av_get_default_channel_layout
                0x00213ed4                av_get_channel_layout
                0x00214128                av_get_channel_layout_channel_index
                0x00214190                av_get_channel_name
                0x00214208                av_get_channel_description
                0x00214284                av_channel_layout_extract_channel
                0x0021430c                av_get_standard_channel_layout
 .text          0x00214370      0x11c /home/chris/work/ffmpeg/refs/ffmpeg-armv7/lib/libavutil.a(cpu.o)
                0x00214370                av_force_cpu_flags
                0x0021438c                av_get_cpu_flags
                0x002143c0                av_set_cpu_flags_mask
                0x002143f4                av_parse_cpu_flags
                0x00214448                av_parse_cpu_caps
 .text          0x0021448c      0x334 /home/chris/work/ffmpeg/refs/ffmpeg-armv7/lib/libavutil.a(crc.o)
                0x0021448c                av_crc_init
                0x00214648                av_crc_get_table
                0x002146bc                av_crc
 .text          0x002147c0      0x4dc /home/chris/work/ffmpeg/refs/ffmpeg-armv7/lib/libavutil.a(dict.o)
                0x002147c0                av_dict_count
                0x002147cc                av_dict_get
                0x002148ec                av_dict_set
                0x00214abc                av_dict_parse_string
                0x00214bec                av_dict_free
                0x00214c48                av_dict_copy
 .text          0x00214c9c       0xcc /home/chris/work/ffmpeg/refs/ffmpeg-armv7/lib/libavutil.a(error.o)
                0x00214c9c                av_strerror
 .text          0x00214d68      0x2bc /home/chris/work/ffmpeg/refs/ffmpeg-armv7/lib/libavutil.a(float_dsp.o)
                0x00214f4c                avpriv_scalarproduct_float_c
                0x00214f88                avpriv_float_dsp_init
 .text          0x00215024      0xea4 /home/chris/work/ffmpeg/refs/ffmpeg-armv7/lib/libavutil.a(imgutils.o)
                0x00215024                av_image_fill_max_pixsteps
                0x00215160                av_image_get_linesize
                0x00215218                av_image_fill_linesizes
                0x00215420                av_image_fill_pointers
                0x00215628                avpriv_set_systematic_pal2
                0x0021575c                av_image_check_size
                0x002157e4                av_image_alloc
                0x00215934                av_image_copy_plane
                0x00215a28                av_image_copy
                0x00215b94                av_image_fill_arrays
                0x00215c88                av_image_get_buffer_size
                0x00215d00                av_image_copy_to_buffer
 .text          0x00215ec8       0xe0 /home/chris/work/ffmpeg/refs/ffmpeg-armv7/lib/libavutil.a(lfg.o)
                0x00215ec8                av_bmg_get
 .text.unlikely
                0x00215fa8       0x80 /home/chris/work/ffmpeg/refs/ffmpeg-armv7/lib/libavutil.a(lfg.o)
                0x00215fa8                av_lfg_init
 .text          0x00216028      0x7f4 /home/chris/work/ffmpeg/refs/ffmpeg-armv7/lib/libavutil.a(log.o)
                0x00216444                av_log_default_callback
                0x002166b4                av_default_item_name
                0x002166c0                av_default_get_category
                0x002166cc                av_log_format_line
                0x00216738                av_vlog
                0x00216758                av_log
                0x002167cc                av_log_get_level
                0x002167e0                av_log_set_level
                0x002167f4                av_log_set_flags
                0x00216808                av_log_set_callback
 .text          0x0021681c        0x0 /home/chris/work/ffmpeg/refs/ffmpeg-armv7/lib/libavutil.a(log2_tab.o)
 .text          0x00216820      0x8f8 /home/chris/work/ffmpeg/refs/ffmpeg-armv7/lib/libavutil.a(mathematics.o)
                0x00216820                av_gcd
                0x00216880                av_rescale_rnd
                0x00216c50                av_rescale
                0x00216c74                av_rescale_q_rnd
                0x00216cac                av_rescale_q
                0x00216cf0                av_compare_ts
                0x00216e30                av_compare_mod
                0x00216e88                av_rescale_delta
 .text          0x00217118      0xea0 /home/chris/work/ffmpeg/refs/ffmpeg-armv7/lib/libavutil.a(md5.o)
                0x00217118                av_md5_alloc
                0x00217120                av_md5_init
                0x00217168                av_md5_update
                0x00217ea0                av_md5_final
                0x00217f78                av_md5_sum
 .text          0x00217fb8      0x4a0 /home/chris/work/ffmpeg/refs/ffmpeg-armv7/lib/libavutil.a(mem.o)
                0x00217fb8                av_max_alloc
                0x00217fcc                av_malloc
                0x00218018                av_realloc
                0x00218044                av_free
                0x00218048                av_realloc_f
                0x002180d0                av_freep
                0x002180ec                av_mallocz
                0x00218114                av_calloc
                0x0021814c                av_strdup
                0x00218188                av_dynarray_add
                0x002181d0                av_memcpy_backptr
 .text          0x00218458     0x3550 /home/chris/work/ffmpeg/refs/ffmpeg-armv7/lib/libavutil.a(opt.o)
                0x0021886c                av_opt_next
                0x002188a4                av_next_option
                0x002188a8                av_find_opt
                0x00218964                av_opt_get_key_value
                0x00218aa0                av_opt_free
                0x00218af4                av_opt_child_next
                0x00218b18                av_opt_child_class_next
                0x00218b3c                av_opt_find2
                0x00218cf0                av_opt_find
                0x00218d14                av_opt_query_ranges_default
                0x00218ed8                av_get_string
                0x00219530                av_opt_eval_q
                0x00219550                av_opt_eval_double
                0x00219570                av_opt_eval_float
                0x00219590                av_opt_eval_int64
                0x002195b0                av_opt_eval_int
                0x002195d0                av_opt_eval_flags
                0x002195f0                av_opt_get_sample_fmt
                0x00219698                av_opt_get_pixel_fmt
                0x00219740                av_opt_get_image_size
                0x002197f8                av_get_double
                0x002198c0                av_opt_get
                0x00219de8                av_opt_set_sample_fmt
                0x00219e20                av_opt_set_pixel_fmt
                0x00219e58                av_opt_set_image_size
                0x00219f38                av_opt_set_bin
                0x00219fe0                av_set_double
                0x0021a084                av_opt_set
                0x0021a47c                av_opt_set_dict
                0x0021a548                av_opt_set_from_string
                0x0021a730                av_set_options_string
                0x0021a8b0                av_set_string3
                0x0021a900                av_opt_set_q
                0x0021a988                av_opt_set_double
                0x0021aa04                av_opt_set_int
                0x0021aa78                av_opt_set_defaults2
                0x0021ac88                av_opt_set_defaults
                0x0021ac94                av_set_int
                0x0021ad30                av_set_q
                0x0021ade0                av_opt_get_q
                0x0021aee4                av_opt_get_double
                0x0021afa0                av_opt_get_int
                0x0021b064                av_opt_flag_is_set
                0x0021b110                av_get_int
                0x0021b1d8                av_get_q
                0x0021b2fc                av_opt_ptr
                0x0021b348                av_opt_query_ranges
                0x0021b39c                av_opt_freep_ranges
                0x0021b944                av_opt_show2
 .text          0x0021b9a8     0x10f0 /home/chris/work/ffmpeg/refs/ffmpeg-armv7/lib/libavutil.a(parseutils.o)
                0x0021b9b0                av_parse_ratio
                0x0021ba8c                av_parse_video_size
                0x0021bb60                av_parse_video_rate
                0x0021bcf8                av_parse_color
                0x0021c010                av_small_strptime
                0x0021c434                av_timegm
                0x0021c500                av_parse_time
                0x0021c958                av_find_info_tag
 .text          0x0021ca98      0x7bc /home/chris/work/ffmpeg/refs/ffmpeg-armv7/lib/libavutil.a(pixdesc.o)
                0x0021ca98                av_read_image_line
                0x0021ccf0                av_write_image_line
                0x0021ce68                av_get_pix_fmt_name
                0x0021ce8c                av_get_pix_fmt
                0x0021cfa4                av_get_bits_per_pixel
                0x0021d028                av_get_padded_bits_per_pixel
                0x0021d0e4                av_get_pix_fmt_string
                0x0021d160                av_pix_fmt_desc_get
                0x0021d184                av_pix_fmt_desc_next
                0x0021d1f0                av_pix_fmt_desc_get_id
                0x0021d224                av_pix_fmt_get_chroma_sub_sample
 .text          0x0021d258      0x2d8 /home/chris/work/ffmpeg/refs/ffmpeg-armv7/lib/libavutil.a(random_seed.o)
                0x0021d258                av_get_random_seed
 .text          0x0021d530      0x8b8 /home/chris/work/ffmpeg/refs/ffmpeg-armv7/lib/libavutil.a(rational.o)
                0x0021d530                av_reduce
                0x0021d96c                av_mul_q
                0x0021d9d8                av_div_q
                0x0021da18                av_add_q
                0x0021da98                av_sub_q
                0x0021dadc                av_d2q
                0x0021dbf0                av_nearer_q
                0x0021dd74                av_find_nearest_q_idx
 .text          0x0021dde8      0x5d0 /home/chris/work/ffmpeg/refs/ffmpeg-armv7/lib/libavutil.a(samplefmt.o)
                0x0021dde8                av_get_sample_fmt_name
                0x0021de10                av_get_sample_fmt
                0x0021de5c                av_get_alt_sample_fmt
                0x0021de90                av_get_packed_sample_fmt
                0x0021dec4                av_get_planar_sample_fmt
                0x0021def8                av_get_sample_fmt_string
                0x0021df84                av_get_bytes_per_sample
                0x0021dfb4                av_get_bits_per_sample_fmt
                0x0021dfe0                av_sample_fmt_is_planar
                0x0021e00c                av_samples_get_buffer_size
                0x0021e0fc                av_samples_fill_arrays
                0x0021e194                av_samples_copy
                0x0021e27c                av_samples_set_silence
                0x0021e314                av_samples_alloc
 .text          0x0021e3b8     0x2728 /home/chris/work/ffmpeg/refs/ffmpeg-armv7/lib/libavutil.a(sha.o)
                0x002207dc                av_sha_alloc
                0x002207e4                av_sha_init
                0x0022093c                av_sha_update
                0x002209ec                av_sha_final
 .text          0x00220ae0       0x9c /home/chris/work/ffmpeg/refs/ffmpeg-armv7/lib/libavutil.a(time.o)
                0x00220ae0                av_gettime
                0x00220b14                av_usleep
 .text          0x00220b7c      0x76c /home/chris/work/ffmpeg/refs/ffmpeg-armv7/lib/libavutil.a(timecode.o)
                0x00220c54                av_timecode_adjust_ntsc_framenum2
                0x00220cd0                av_timecode_get_smpte_from_framenum
                0x00220e0c                av_timecode_make_string
                0x00220f6c                av_timecode_make_smpte_tc_string
                0x00221034                av_timecode_make_mpeg_tc_string
                0x0022108c                av_timecode_check_frame_rate
                0x00221104                av_timecode_init
                0x0022118c                av_timecode_init_from_string
 .text          0x002212e8      0x104 /home/chris/work/ffmpeg/refs/ffmpeg-armv7/lib/libavutil.a(utils.o)
                0x002212e8                avutil_version
                0x00221328                avutil_configuration
                0x00221338                avutil_license
                0x0022134c                av_get_media_type_string
                0x002213c4                av_get_picture_type_char
 .text          0x002213ec       0xe0 /home/chris/work/ffmpeg/refs/ffmpeg-armv7/lib/libavutil.a(cpu.o)
                0x002213ec                ff_get_cpu_flags_arm
 .text          0x002214cc       0x40 /home/chris/work/ffmpeg/refs/ffmpeg-armv7/lib/libavutil.a(float_dsp_init_arm.o)
                0x002214cc                ff_float_dsp_init_arm
 .text          0x0022150c       0x90 /home/chris/work/ffmpeg/refs/ffmpeg-armv7/lib/libavutil.a(float_dsp_init_neon.o)
                0x0022150c                ff_float_dsp_init_neon
 .text          0x0022159c       0x34 /home/chris/work/ffmpeg/refs/ffmpeg-armv7/lib/libavutil.a(float_dsp_init_vfp.o)
                0x0022159c                ff_float_dsp_init_vfp
 .text          0x002215d0      0x350 /home/chris/work/ffmpeg/refs/ffmpeg-armv7/lib/libavutil.a(float_dsp_neon.o)
                0x002215d0                ff_vector_fmul_neon
                0x00221660                ff_vector_fmac_scalar_neon
                0x002216f8                ff_vector_fmul_scalar_neon
                0x00221770                ff_vector_fmul_window_neon
                0x00221820                ff_vector_fmul_add_neon
                0x00221880                ff_vector_fmul_reverse_neon
                0x002218d4                ff_butterflies_float_neon
                0x002218f8                ff_scalarproduct_float_neon
 .text          0x00221920      0x124 /home/chris/work/ffmpeg/refs/ffmpeg-armv7/lib/libavutil.a(float_dsp_vfp.o)
                0x00221920                ff_vector_fmul_vfp
                0x0022199c                ff_vector_fmul_reverse_vfp
 .text          0x00221a48     0x2188 /home/chris/work/ffmpeg/refs/ffmpeg-armv7/lib/libavutil.a(eval.o)
                0x00222638                av_strtod
                0x002227c4                av_expr_free
                0x00223924                av_expr_parse
                0x00223acc                av_expr_eval
                0x00223b2c                av_expr_parse_and_eval
 .text          0x00223bd0       0xc8 /home/chris/work/android/android-ndk-r8d/toolchains/arm-linux-androideabi-4.6/prebuilt/linux-x86/bin/../lib/gcc/arm-linux-androideabi/4.6/libgcc.a(_udivsi3.o)
                0x00223bd0                __udivsi3
                0x00223bd0                __aeabi_uidiv
                0x00223c78                __aeabi_uidivmod
 .text          0x00223c98       0xfc /home/chris/work/android/android-ndk-r8d/toolchains/arm-linux-androideabi-4.6/prebuilt/linux-x86/bin/../lib/gcc/arm-linux-androideabi/4.6/libgcc.a(_divsi3.o)
                0x00223c98                __divsi3
                0x00223c98                __aeabi_idiv
                0x00223d74                __aeabi_idivmod
 .text          0x00223d94       0x1c /home/chris/work/android/android-ndk-r8d/toolchains/arm-linux-androideabi-4.6/prebuilt/linux-x86/bin/../lib/gcc/arm-linux-androideabi/4.6/libgcc.a(_lshrdi3.o)
                0x00223d94                __lshrdi3
                0x00223d94                __aeabi_llsr
 .text          0x00223db0       0x1c /home/chris/work/android/android-ndk-r8d/toolchains/arm-linux-androideabi-4.6/prebuilt/linux-x86/bin/../lib/gcc/arm-linux-androideabi/4.6/libgcc.a(_ashldi3.o)
                0x00223db0                __ashldi3
                0x00223db0                __aeabi_llsl
 .text          0x00223dcc      0x3b8 /home/chris/work/android/android-ndk-r8d/toolchains/arm-linux-androideabi-4.6/prebuilt/linux-x86/bin/../lib/gcc/arm-linux-androideabi/4.6/libgcc.a(_arm_addsubdf3.o)
                0x00223dcc                __aeabi_drsub
                0x00223dd4                __subdf3
                0x00223dd4                __aeabi_dsub
                0x00223dd8                __adddf3
                0x00223dd8                __aeabi_dadd
                0x00224084                __floatunsidf
                0x00224084                __aeabi_ui2d
                0x002240a8                __floatsidf
                0x002240a8                __aeabi_i2d
                0x002240d0                __extendsfdf2
                0x002240d0                __aeabi_f2d
                0x00224110                __floatundidf
                0x00224110                __aeabi_ul2d
                0x00224124                __floatdidf
                0x00224124                __aeabi_l2d
 .text          0x00224184      0x470 /home/chris/work/android/android-ndk-r8d/toolchains/arm-linux-androideabi-4.6/prebuilt/linux-x86/bin/../lib/gcc/arm-linux-androideabi/4.6/libgcc.a(_arm_muldivdf3.o)
                0x00224184                __muldf3
                0x00224184                __aeabi_dmul
                0x002243f0                __divdf3
                0x002243f0                __aeabi_ddiv
 .text          0x002245f4      0x12c /home/chris/work/android/android-ndk-r8d/toolchains/arm-linux-androideabi-4.6/prebuilt/linux-x86/bin/../lib/gcc/arm-linux-androideabi/4.6/libgcc.a(_arm_cmpdf2.o)
                0x002245f4                __gtdf2
                0x002245f4                __gedf2
                0x002245fc                __ltdf2
                0x002245fc                __ledf2
                0x00224604                __cmpdf2
                0x00224604                __nedf2
                0x00224604                __eqdf2
                0x0022468c                __aeabi_cdrcmple
                0x002246a8                __aeabi_cdcmpeq
                0x002246a8                __aeabi_cdcmple
                0x002246bc                __aeabi_dcmpeq
                0x002246d0                __aeabi_dcmplt
                0x002246e4                __aeabi_dcmple
                0x002246f8                __aeabi_dcmpge
                0x0022470c                __aeabi_dcmpgt
 .text          0x00224720       0x54 /home/chris/work/android/android-ndk-r8d/toolchains/arm-linux-androideabi-4.6/prebuilt/linux-x86/bin/../lib/gcc/arm-linux-androideabi/4.6/libgcc.a(_arm_fixunsdfsi.o)
                0x00224720                __fixunsdfsi
                0x00224720                __aeabi_d2uiz
 .text          0x00224774      0x250 /home/chris/work/android/android-ndk-r8d/toolchains/arm-linux-androideabi-4.6/prebuilt/linux-x86/bin/../lib/gcc/arm-linux-androideabi/4.6/libgcc.a(_arm_addsubsf3.o)
                0x00224774                __aeabi_frsub
                0x0022477c                __subsf3
                0x0022477c                __aeabi_fsub
                0x00224780                __addsf3
                0x00224780                __aeabi_fadd
                0x00224910                __floatunsisf
                0x00224910                __aeabi_ui2f
                0x00224918                __floatsisf
                0x00224918                __aeabi_i2f
                0x00224938                __floatundisf
                0x00224938                __aeabi_ul2f
                0x00224948                __floatdisf
                0x00224948                __aeabi_l2f
 .text          0x002249c4       0x44 /home/chris/work/android/android-ndk-r8d/toolchains/arm-linux-androideabi-4.6/prebuilt/linux-x86/bin/../lib/gcc/arm-linux-androideabi/4.6/libgcc.a(_aeabi_ldivmod.o)
                0x002249c4                __aeabi_ldivmod
 .text          0x00224a08       0x3c /home/chris/work/android/android-ndk-r8d/toolchains/arm-linux-androideabi-4.6/prebuilt/linux-x86/bin/../lib/gcc/arm-linux-androideabi/4.6/libgcc.a(_aeabi_uldivmod.o)
                0x00224a08                __aeabi_uldivmod
 .text          0x00224a44       0x10 /home/chris/work/android/android-ndk-r8d/toolchains/arm-linux-androideabi-4.6/prebuilt/linux-x86/bin/../lib/gcc/arm-linux-androideabi/4.6/libgcc.a(_dvmd_lnx.o)
                0x00224a44                __aeabi_idiv0
                0x00224a44                __aeabi_ldiv0
 .text          0x00224a54       0x44 /home/chris/work/android/android-ndk-r8d/toolchains/arm-linux-androideabi-4.6/prebuilt/linux-x86/bin/../lib/gcc/arm-linux-androideabi/4.6/libgcc.a(_fixdfdi.o)
                0x00224a54                __fixdfdi
                0x00224a54                __aeabi_d2lz
 .text          0x00224a98       0x6c /home/chris/work/android/android-ndk-r8d/toolchains/arm-linux-androideabi-4.6/prebuilt/linux-x86/bin/../lib/gcc/arm-linux-androideabi/4.6/libgcc.a(_fixunsdfdi.o)
                0x00224a98                __fixunsdfdi
                0x00224a98                __aeabi_d2ulz
 .text          0x00224b04       0x78 /home/chris/work/android/android-ndk-r8d/toolchains/arm-linux-androideabi-4.6/prebuilt/linux-x86/bin/../lib/gcc/arm-linux-androideabi/4.6/libgcc.a(bpabi.o)
                0x00224b04                __gnu_ldivmod_helper
                0x00224b40                __gnu_uldivmod_helper
 .text          0x00224b7c      0xddc /home/chris/work/android/android-ndk-r8d/toolchains/arm-linux-androideabi-4.6/prebuilt/linux-x86/bin/../lib/gcc/arm-linux-androideabi/4.6/libgcc.a(unwind-arm.o)
                0x002253c0                __aeabi_unwind_cpp_pr0
                0x002253b8                __aeabi_unwind_cpp_pr1
                0x002253b0                __aeabi_unwind_cpp_pr2
                0x00224f40                _Unwind_VRS_Get
                0x00224fac                _Unwind_VRS_Set
                0x002253c8                _Unwind_VRS_Pop
                0x00225720                _Unwind_GetCFA
                0x00225728                __gnu_Unwind_RaiseException
                0x002257cc                __gnu_Unwind_ForcedUnwind
                0x002257e8                __gnu_Unwind_Resume
                0x00225854                __gnu_Unwind_Resume_or_Rethrow
                0x00225874                _Unwind_Complete
                0x00225878                _Unwind_DeleteException
                0x00225898                __gnu_Unwind_Backtrace
 .text          0x00225958      0x1a8 /home/chris/work/android/android-ndk-r8d/toolchains/arm-linux-androideabi-4.6/prebuilt/linux-x86/bin/../lib/gcc/arm-linux-androideabi/4.6/libgcc.a(libunwind.o)
                0x00225958                __restore_core_regs
                0x00225958                restore_core_regs
                0x0022596c                __gnu_Unwind_Restore_VFP
                0x00225974                __gnu_Unwind_Save_VFP
                0x0022597c                __gnu_Unwind_Restore_VFP_D
                0x00225984                __gnu_Unwind_Save_VFP_D
                0x0022598c                __gnu_Unwind_Restore_VFP_D_16_to_31
                0x00225994                __gnu_Unwind_Save_VFP_D_16_to_31
                0x0022599c                __gnu_Unwind_Restore_WMMXD
                0x002259e0                __gnu_Unwind_Save_WMMXD
                0x00225a24                __gnu_Unwind_Restore_WMMXC
                0x00225a38                __gnu_Unwind_Save_WMMXC
                0x00225a4c                ___Unwind_RaiseException
                0x00225a4c                _Unwind_RaiseException
                0x00225a70                ___Unwind_Resume
                0x00225a70                _Unwind_Resume
                0x00225a94                ___Unwind_Resume_or_Rethrow
                0x00225a94                _Unwind_Resume_or_Rethrow
                0x00225ab8                ___Unwind_ForcedUnwind
                0x00225ab8                _Unwind_ForcedUnwind
                0x00225adc                ___Unwind_Backtrace
                0x00225adc                _Unwind_Backtrace
 .text          0x00225b00      0x4a0 /home/chris/work/android/android-ndk-r8d/toolchains/arm-linux-androideabi-4.6/prebuilt/linux-x86/bin/../lib/gcc/arm-linux-androideabi/4.6/libgcc.a(pr-support.o)
                0x00225b58                __gnu_unwind_execute
                0x00225eec                __gnu_unwind_frame
                0x00225f2c                _Unwind_GetRegionStart
                0x00225f58                _Unwind_GetLanguageSpecificData
                0x00225f90                _Unwind_GetDataRelBase
                0x00225f98                _Unwind_GetTextRelBase
 .text          0x00225fa0      0x484 /home/chris/work/android/android-ndk-r8d/toolchains/arm-linux-androideabi-4.6/prebuilt/linux-x86/bin/../lib/gcc/arm-linux-androideabi/4.6/libgcc.a(_divdi3.o)
                0x00225fa0                __divdi3
 .text          0xffffffffffffffff      0x42c /home/chris/work/android/android-ndk-r8d/toolchains/arm-linux-androideabi-4.6/prebuilt/linux-x86/bin/../lib/gcc/arm-linux-androideabi/4.6/libgcc.a(_udivdi3.o)
                0x00226424                __udivdi3
 .text          0x00226850        0x0 /home/chris/work/android/android-ndk-r8d/platforms/android-14/arch-arm/usr/lib/crtend_so.o

.ARM.extab      0x00226850       0x78
 .ARM.extab.text.Java_com_chris_yanlong_XPlayer_initVideoPlayer
                0x00226850        0x0 ./obj/local/armeabi/objs/xplayer/com_chris_yanlong_XPlayer.o
 .ARM.extab.text.Java_com_chris_yanlong_XPlayer_play
                0x00226850        0xc ./obj/local/armeabi/objs/xplayer/com_chris_yanlong_XPlayer.o
 .ARM.extab.text.Java_com_chris_yanlong_XPlayer_stopVideoPlayer
                0x0022685c        0xc ./obj/local/armeabi/objs/xplayer/com_chris_yanlong_XPlayer.o
 .ARM.extab.text.Java_com_chris_yanlong_XPlayer_initOpenGL
                0x00226868        0xc ./obj/local/armeabi/objs/xplayer/com_chris_yanlong_XPlayer.o
 .ARM.extab.text.Java_com_chris_yanlong_XPlayer_openGLResize
                0x00226874        0xc ./obj/local/armeabi/objs/xplayer/com_chris_yanlong_XPlayer.o
 .ARM.extab.text.Java_com_chris_yanlong_XPlayer_openGLRend
                0x00226880        0xc ./obj/local/armeabi/objs/xplayer/com_chris_yanlong_XPlayer.o
 .ARM.extab.text.packet_queue_init
                0x0022688c        0x0 ./obj/local/armeabi/objs/xplayer/packet_queue.o
 .ARM.extab.text.packet_queue_put
                0x0022688c        0x0 ./obj/local/armeabi/objs/xplayer/packet_queue.o
 .ARM.extab.text.packet_queue_get
                0x0022688c        0x0 ./obj/local/armeabi/objs/xplayer/packet_queue.o
 .ARM.extab.text.empty_queue
                0x0022688c        0x0 ./obj/local/armeabi/objs/xplayer/packet_queue.o
 .ARM.extab.text.init_decode_audio
                0x0022688c        0x0 ./obj/local/armeabi/objs/xplayer/decode_audio.o
 .ARM.extab.text.decode_audio
                0x0022688c        0x0 ./obj/local/armeabi/objs/xplayer/decode_audio.o
 .ARM.extab.text.bqPlayerCallback
                0x0022688c        0x0 ./obj/local/armeabi/objs/xplayer/opensl_audio_play.o
 .ARM.extab.text.createEngine
                0x0022688c        0x0 ./obj/local/armeabi/objs/xplayer/opensl_audio_play.o
 .ARM.extab.text.createBufferQueueAudioPlayer
                0x0022688c        0x0 ./obj/local/armeabi/objs/xplayer/opensl_audio_play.o
 .ARM.extab.text.opensl_play_audio
                0x0022688c        0x0 ./obj/local/armeabi/objs/xplayer/opensl_audio_play.o
 .ARM.extab.text.init_decode_video
                0x0022688c        0x0 ./obj/local/armeabi/objs/xplayer/decode_video.o
 .ARM.extab.text.decode_video
                0x0022688c        0x0 ./obj/local/armeabi/objs/xplayer/decode_video.o
 .ARM.extab.text.check_gl_error
                0x0022688c        0x0 ./obj/local/armeabi/objs/xplayer/opengl_video_play.o
 .ARM.extab.text.opengl_resize
                0x0022688c        0x0 ./obj/local/armeabi/objs/xplayer/opengl_video_play.o
 .ARM.extab.text.opengl_render
                0x0022688c        0x0 ./obj/local/armeabi/objs/xplayer/opengl_video_play.o
 .ARM.extab.text.opengl_start
                0x0022688c        0x0 ./obj/local/armeabi/objs/xplayer/opengl_video_play.o
 .ARM.extab.text.init_opengl_variable
                0x0022688c        0xc ./obj/local/armeabi/objs/xplayer/opengl_video_play.o
 .ARM.extab.text.frame_queue_init
                0x00226898        0x0 ./obj/local/armeabi/objs/xplayer/picture_queue.o
 .ARM.extab.text.frame_queue_put
                0x00226898        0x0 ./obj/local/armeabi/objs/xplayer/picture_queue.o
 .ARM.extab.text.frame_queue_get
                0x00226898        0x0 ./obj/local/armeabi/objs/xplayer/picture_queue.o
 .ARM.extab.text.interrupt_cb
                0x00226898        0x0 ./obj/local/armeabi/objs/xplayer/xplayer.o
 .ARM.extab.text.play_video_thread
                0x00226898        0xc ./obj/local/armeabi/objs/xplayer/xplayer.o
 .ARM.extab.text.decode_video_packt_thread
                0x002268a4        0x0 ./obj/local/armeabi/objs/xplayer/xplayer.o
 .ARM.extab.text.play_audio_thread
                0x002268a4        0x0 ./obj/local/armeabi/objs/xplayer/xplayer.o
 .ARM.extab.text.init_media
                0x002268a4        0x0 ./obj/local/armeabi/objs/xplayer/xplayer.o
 .ARM.extab.text.read_thread
                0x002268a4        0x0 ./obj/local/armeabi/objs/xplayer/xplayer.o
 .ARM.extab.text.read_data_thread
                0x002268a4        0x0 ./obj/local/armeabi/objs/xplayer/xplayer.o
 .ARM.extab.text.xplayer_play
                0x002268a4        0x0 ./obj/local/armeabi/objs/xplayer/xplayer.o
 .ARM.extab.text.player_stop
                0x002268a4        0x0 ./obj/local/armeabi/objs/xplayer/xplayer.o
 .ARM.extab     0x002268a4        0x0 /home/chris/work/android/android-ndk-r8d/toolchains/arm-linux-androideabi-4.6/prebuilt/linux-x86/bin/../lib/gcc/arm-linux-androideabi/4.6/libgcc.a(bpabi.o)
 .ARM.extab     0x002268a4       0x24 /home/chris/work/android/android-ndk-r8d/toolchains/arm-linux-androideabi-4.6/prebuilt/linux-x86/bin/../lib/gcc/arm-linux-androideabi/4.6/libgcc.a(unwind-arm.o)
 .ARM.extab     0x002268c8        0x0 /home/chris/work/android/android-ndk-r8d/toolchains/arm-linux-androideabi-4.6/prebuilt/linux-x86/bin/../lib/gcc/arm-linux-androideabi/4.6/libgcc.a(pr-support.o)
 .ARM.extab     0x002268c8        0x0 /home/chris/work/android/android-ndk-r8d/toolchains/arm-linux-androideabi-4.6/prebuilt/linux-x86/bin/../lib/gcc/arm-linux-androideabi/4.6/libgcc.a(_divdi3.o)
 .ARM.extab     0x002268c8        0x0 /home/chris/work/android/android-ndk-r8d/toolchains/arm-linux-androideabi-4.6/prebuilt/linux-x86/bin/../lib/gcc/arm-linux-androideabi/4.6/libgcc.a(_udivdi3.o)

.ARM.exidx      0x002268c8      0x218
 .ARM.exidx.text.Java_com_chris_yanlong_XPlayer_initVideoPlayer
                0x002268c8        0x8 ./obj/local/armeabi/objs/xplayer/com_chris_yanlong_XPlayer.o
 .ARM.exidx.text.Java_com_chris_yanlong_XPlayer_play
                0x002268d0        0x8 ./obj/local/armeabi/objs/xplayer/com_chris_yanlong_XPlayer.o
 .ARM.exidx.text.Java_com_chris_yanlong_XPlayer_stopVideoPlayer
                0x002268d8        0x8 ./obj/local/armeabi/objs/xplayer/com_chris_yanlong_XPlayer.o
 .ARM.exidx.text.Java_com_chris_yanlong_XPlayer_initOpenGL
                0x002268e0        0x8 ./obj/local/armeabi/objs/xplayer/com_chris_yanlong_XPlayer.o
 .ARM.exidx.text.Java_com_chris_yanlong_XPlayer_openGLResize
                0x002268e8        0x8 ./obj/local/armeabi/objs/xplayer/com_chris_yanlong_XPlayer.o
 .ARM.exidx.text.Java_com_chris_yanlong_XPlayer_openGLRend
                0x002268f0        0x8 ./obj/local/armeabi/objs/xplayer/com_chris_yanlong_XPlayer.o
 ** ARM cantunwind
                0x002268f8        0x8
 .ARM.exidx.text.packet_queue_init
                0x00226900        0x8 ./obj/local/armeabi/objs/xplayer/packet_queue.o
 .ARM.exidx.text.packet_queue_put
                0x00226908        0x8 ./obj/local/armeabi/objs/xplayer/packet_queue.o
 .ARM.exidx.text.packet_queue_get
                0x00226910        0x8 ./obj/local/armeabi/objs/xplayer/packet_queue.o
 .ARM.exidx.text.empty_queue
                0x00226918        0x8 ./obj/local/armeabi/objs/xplayer/packet_queue.o
 ** ARM cantunwind
                0x00226920        0x8
 .ARM.exidx.text.init_decode_audio
                0x00226928        0x8 ./obj/local/armeabi/objs/xplayer/decode_audio.o
 .ARM.exidx.text.decode_audio
                0x00226930        0x8 ./obj/local/armeabi/objs/xplayer/decode_audio.o
 ** ARM cantunwind
                0x00226938        0x8
 .ARM.exidx.text.bqPlayerCallback
                0x00226940        0x8 ./obj/local/armeabi/objs/xplayer/opensl_audio_play.o
 .ARM.exidx.text.createEngine
                0x00226948        0x8 ./obj/local/armeabi/objs/xplayer/opensl_audio_play.o
 .ARM.exidx.text.createBufferQueueAudioPlayer
                0x00226950        0x8 ./obj/local/armeabi/objs/xplayer/opensl_audio_play.o
 .ARM.exidx.text.opensl_play_audio
                0x00226958        0x8 ./obj/local/armeabi/objs/xplayer/opensl_audio_play.o
 ** ARM cantunwind
                0x00226960        0x8
 .ARM.exidx.text.init_decode_video
                0x00226968        0x8 ./obj/local/armeabi/objs/xplayer/decode_video.o
 .ARM.exidx.text.decode_video
                0x00226970        0x8 ./obj/local/armeabi/objs/xplayer/decode_video.o
 ** ARM cantunwind
                0x00226978        0x8
 .ARM.exidx.text.check_gl_error
                0x00226980        0x8 ./obj/local/armeabi/objs/xplayer/opengl_video_play.o
 .ARM.exidx.text.opengl_resize
                0x00226988        0x8 ./obj/local/armeabi/objs/xplayer/opengl_video_play.o
 .ARM.exidx.text.opengl_start
                0x00226990        0x8 ./obj/local/armeabi/objs/xplayer/opengl_video_play.o
 .ARM.exidx.text.init_opengl_variable
                0x00226998        0x8 ./obj/local/armeabi/objs/xplayer/opengl_video_play.o
 ** ARM cantunwind
                0x002269a0        0x8
 .ARM.exidx.text.frame_queue_init
                0x002269a8        0x8 ./obj/local/armeabi/objs/xplayer/picture_queue.o
 .ARM.exidx.text.frame_queue_put
                0x002269b0        0x8 ./obj/local/armeabi/objs/xplayer/picture_queue.o
 .ARM.exidx.text.frame_queue_get
                0x002269b8        0x8 ./obj/local/armeabi/objs/xplayer/picture_queue.o
 ** ARM cantunwind
                0x002269c0        0x8
 .ARM.exidx.text.interrupt_cb
                0x002269c8        0x8 ./obj/local/armeabi/objs/xplayer/xplayer.o
 .ARM.exidx.text.play_video_thread
                0x002269d0        0x8 ./obj/local/armeabi/objs/xplayer/xplayer.o
 .ARM.exidx.text.decode_video_packt_thread
                0x002269d8        0x8 ./obj/local/armeabi/objs/xplayer/xplayer.o
 .ARM.exidx.text.init_media
                0x002269e0        0x8 ./obj/local/armeabi/objs/xplayer/xplayer.o
 .ARM.exidx.text.read_thread
                0x002269e8        0x8 ./obj/local/armeabi/objs/xplayer/xplayer.o
 .ARM.exidx.text.read_data_thread
                0x002269f0        0x8 ./obj/local/armeabi/objs/xplayer/xplayer.o
 .ARM.exidx.text.player_stop
                0x002269f8        0x8 ./obj/local/armeabi/objs/xplayer/xplayer.o
 ** ARM cantunwind
                0x00226a00        0x8
 .ARM.exidx     0xffffffffffffffff       0x10 /home/chris/work/android/android-ndk-r8d/toolchains/arm-linux-androideabi-4.6/prebuilt/linux-x86/bin/../lib/gcc/arm-linux-androideabi/4.6/libgcc.a(bpabi.o)
 .ARM.exidx     0xffffffffffffffff       0xb0 /home/chris/work/android/android-ndk-r8d/toolchains/arm-linux-androideabi-4.6/prebuilt/linux-x86/bin/../lib/gcc/arm-linux-androideabi/4.6/libgcc.a(unwind-arm.o)
 ** ARM cantunwind
                0x00226aa8        0x8
 .ARM.exidx     0xffffffffffffffff       0x38 /home/chris/work/android/android-ndk-r8d/toolchains/arm-linux-androideabi-4.6/prebuilt/linux-x86/bin/../lib/gcc/arm-linux-androideabi/4.6/libgcc.a(pr-support.o)
 .ARM.exidx     0x00226ac8        0x8 /home/chris/work/android/android-ndk-r8d/toolchains/arm-linux-androideabi-4.6/prebuilt/linux-x86/bin/../lib/gcc/arm-linux-androideabi/4.6/libgcc.a(_divdi3.o)
 .ARM.exidx     0x00226ad0        0x8 /home/chris/work/android/android-ndk-r8d/toolchains/arm-linux-androideabi-4.6/prebuilt/linux-x86/bin/../lib/gcc/arm-linux-androideabi/4.6/libgcc.a(_udivdi3.o)
 ** ARM cantunwind
                0x00226ad8        0x8

.rodata         0x00226ae0    0x2bd10
 ** merge strings
                0x00226ae0      0xdbe
 .rodata        0x002278a0       0x10 ./obj/local/armeabi/objs/xplayer/opengl_video_play.o
 .rodata        0x002278b0       0x30 /home/chris/work/ffmpeg/refs/ffmpeg-armv7/lib/libavformat.a(avio.o)
 .rodata.str1.4
                0x002278e0      0x14c /home/chris/work/ffmpeg/refs/ffmpeg-armv7/lib/libavformat.a(avio.o)
 .rodata.str1.4
                0x00227a2c       0x40 /home/chris/work/ffmpeg/refs/ffmpeg-armv7/lib/libavformat.a(file.o)
 .rodata        0x00227a6c        0xc /home/chris/work/ffmpeg/refs/ffmpeg-armv7/lib/libavformat.a(flvdec.o)
 .rodata.str1.4
                0x00227a78      0x30c /home/chris/work/ffmpeg/refs/ffmpeg-armv7/lib/libavformat.a(flvdec.o)
 .rodata.str1.4
                0x00227d84      0x210 /home/chris/work/ffmpeg/refs/ffmpeg-armv7/lib/libavformat.a(hls.o)
 .rodata.str1.4
                0x00227f94      0x2f4 /home/chris/work/ffmpeg/refs/ffmpeg-armv7/lib/libavformat.a(hlsproto.o)
 .rodata.str1.4
                0x00228288      0x5b8 /home/chris/work/ffmpeg/refs/ffmpeg-armv7/lib/libavformat.a(http.o)
 .rodata.str1.4
                0x00228840      0x180 /home/chris/work/ffmpeg/refs/ffmpeg-armv7/lib/libavformat.a(httpauth.o)
 .rodata        0x002289c0      0x59c /home/chris/work/ffmpeg/refs/ffmpeg-armv7/lib/libavformat.a(mov.o)
 .rodata.str1.4
                0x00228f5c      0x89c /home/chris/work/ffmpeg/refs/ffmpeg-armv7/lib/libavformat.a(mov.o)
 .rodata        0x002297f8      0x6f0 /home/chris/work/ffmpeg/refs/ffmpeg-armv7/lib/libavformat.a(mov_chan.o)
 .rodata        0x00229ee8       0x14 /home/chris/work/ffmpeg/refs/ffmpeg-armv7/lib/libavformat.a(mpeg.o)
 .rodata.str1.4
                0x00229efc       0x70 /home/chris/work/ffmpeg/refs/ffmpeg-armv7/lib/libavformat.a(mpeg.o)
 .rodata        0x00229f6c      0x1e0 /home/chris/work/ffmpeg/refs/ffmpeg-armv7/lib/libavformat.a(mpegts.o)
 .rodata.str1.4
                0x0022a14c      0x30c /home/chris/work/ffmpeg/refs/ffmpeg-armv7/lib/libavformat.a(mpegts.o)
 .rodata.str1.4
                0x0022a458       0x30 /home/chris/work/ffmpeg/refs/ffmpeg-armv7/lib/libavformat.a(mpegvideodec.o)
 .rodata.str1.4
                0x0022a488       0x88 /home/chris/work/ffmpeg/refs/ffmpeg-armv7/lib/libavformat.a(network.o)
 .rodata.str1.4
                0x0022a510      0x7d8 /home/chris/work/ffmpeg/refs/ffmpeg-armv7/lib/libavformat.a(options.o)
 .rodata.str1.4
                0x0022ace8       0x34 /home/chris/work/ffmpeg/refs/ffmpeg-armv7/lib/libavformat.a(rawdec.o)
 .rodata        0x0022ad1c      0xb78 /home/chris/work/ffmpeg/refs/ffmpeg-armv7/lib/libavformat.a(riff.o)
                0x0022ad8c                ff_codec_wav_tags
                0x0022ad28                ff_codec_wav_guids
                0x0022af54                ff_codec_bmp_tags
 .rodata.str1.4
                0x0022b894      0x1b0 /home/chris/work/ffmpeg/refs/ffmpeg-armv7/lib/libavformat.a(riff.o)
 .rodata.str1.4
                0x0022ba44       0xf0 /home/chris/work/ffmpeg/refs/ffmpeg-armv7/lib/libavformat.a(tcp.o)
 .rodata        0x0022bb34      0x208 /home/chris/work/ffmpeg/refs/ffmpeg-armv7/lib/libavformat.a(utils.o)
 .rodata.str1.4
                0x0022bd3c     0x140c /home/chris/work/ffmpeg/refs/ffmpeg-armv7/lib/libavformat.a(utils.o)
 .rodata        0x0022d148       0x40 /home/chris/work/ffmpeg/refs/ffmpeg-armv7/lib/libavformat.a(aviobuf.o)
 .rodata.str1.4
                0x0022d188       0x34 /home/chris/work/ffmpeg/refs/ffmpeg-armv7/lib/libavformat.a(aviobuf.o)
 .rodata.str1.4
                0x0022d1bc      0x658 /home/chris/work/ffmpeg/refs/ffmpeg-armv7/lib/libavformat.a(id3v1.o)
 .rodata        0x0022d814      0x224 /home/chris/work/ffmpeg/refs/ffmpeg-armv7/lib/libavformat.a(id3v2.o)
                0x0022d81c                ff_id3v2_mime_tags
                0x0022d960                ff_id3v2_3_tags
                0x0022d97c                ff_id3v2_4_tags
                0x0022d9b4                ff_id3v2_tags
 .rodata.str1.4
                0x0022da38      0x6e8 /home/chris/work/ffmpeg/refs/ffmpeg-armv7/lib/libavformat.a(id3v2.o)
 .rodata        0x0022e120      0xb68 /home/chris/work/ffmpeg/refs/ffmpeg-armv7/lib/libavformat.a(isom.o)
                0x0022eb90                ff_mp4_obj_type
                0x0022e4f0                ff_codec_movsubtitle_tags
                0x0022e510                ff_codec_movaudio_tags
                0x0022e698                ff_codec_movvideo_tags
 .rodata.str1.4
                0x0022ec88       0x2c /home/chris/work/ffmpeg/refs/ffmpeg-armv7/lib/libavformat.a(isom.o)
 .rodata.str1.4
                0x0022ecb4        0x4 /home/chris/work/ffmpeg/refs/ffmpeg-armv7/lib/libavformat.a(metadata.o)
 .rodata        0x0022ecb8        0x8 /home/chris/work/ffmpeg/refs/ffmpeg-armv7/lib/libavformat.a(mux.o)
 .rodata.str1.4
                0x0022ecc0      0x2bc /home/chris/work/ffmpeg/refs/ffmpeg-armv7/lib/libavformat.a(mux.o)
 .rodata        0x0022ef80      0x6d0 /home/chris/work/ffmpeg/refs/ffmpeg-armv7/lib/libavcodec.a(ac3tab.o)
                0x0022ef80                ff_eac3_default_chmap
                0x0022ef90                ff_ac3_fast_gain_tab
                0x0022efa0                ff_ac3_floor_tab
                0x0022efb0                ff_ac3_db_per_bit_tab
                0x0022efb8                ff_ac3_slow_gain_tab
                0x0022efc0                ff_ac3_fast_decay_tab
                0x0022efc4                ff_ac3_slow_decay_tab
                0x0022efc8                ff_ac3_bap_tab
                0x0022f008                ff_ac3_hearing_threshold_tab
                0x0022f134                ff_ac3_log_add_tab
                0x0022f240                ff_ac3_window
                0x0022f440                ff_eac3_default_cpl_band_struct
                0x0022f454                ff_ac3_rematrix_band_tab
                0x0022f45c                ff_ac3_bitrate_tab
                0x0022f484                ff_ac3_sample_rate_tab
                0x0022f48c                ff_ac3_dec_channel_map
                0x0022f4ec                ff_ac3_enc_channel_map
                0x0022f54c                avpriv_ac3_channel_layout_tab
                0x0022f55c                ff_ac3_channels_tab
                0x0022f564                ff_ac3_frame_size_tab
 .rodata.str1.4
                0x0022f650       0xa8 /home/chris/work/ffmpeg/refs/ffmpeg-armv7/lib/libavcodec.a(avpacket.o)
 .rodata.str1.4
                0x0022f6f8        0x8 /home/chris/work/ffmpeg/refs/ffmpeg-armv7/lib/libavcodec.a(chomp_bsf.o)
 .rodata.str1.4
                0x0022f700     0x2f54 /home/chris/work/ffmpeg/refs/ffmpeg-armv7/lib/libavcodec.a(codec_desc.o)
 .rodata.str1.4
                0x00232654        0xc /home/chris/work/ffmpeg/refs/ffmpeg-armv7/lib/libavcodec.a(dump_extradata_bsf.o)
 .rodata        0x00232660        0x8 /home/chris/work/ffmpeg/refs/ffmpeg-armv7/lib/libavcodec.a(h263dec.o)
                0x00232660                ff_h263_hwaccel_pixfmt_list_420
 .rodata.str1.4
                0x00232668      0x250 /home/chris/work/ffmpeg/refs/ffmpeg-armv7/lib/libavcodec.a(h263dec.o)
 .rodata        0x002328b8      0x290 /home/chris/work/ffmpeg/refs/ffmpeg-armv7/lib/libavcodec.a(h264.o)
                0x00232b40                ff_h264_mb_sizes
 .rodata.str1.4
                0x00232b48      0xd64 /home/chris/work/ffmpeg/refs/ffmpeg-armv7/lib/libavcodec.a(h264.o)
 .rodata        0x002338ac     0x23a0 /home/chris/work/ffmpeg/refs/ffmpeg-armv7/lib/libavcodec.a(h264_cabac.o)
 .rodata.str1.4
                0x00235c4c       0x78 /home/chris/work/ffmpeg/refs/ffmpeg-armv7/lib/libavcodec.a(h264_cabac.o)
 .rodata        0x00235cc4      0x8c8 /home/chris/work/ffmpeg/refs/ffmpeg-armv7/lib/libavcodec.a(h264_cavlc.o)
 .rodata.str1.4
                0x0023658c      0x1e4 /home/chris/work/ffmpeg/refs/ffmpeg-armv7/lib/libavcodec.a(h264_cavlc.o)
 .rodata        0x00236770       0x34 /home/chris/work/ffmpeg/refs/ffmpeg-armv7/lib/libavcodec.a(h264_direct.o)
 .rodata        0x002367a4      0x3e8 /home/chris/work/ffmpeg/refs/ffmpeg-armv7/lib/libavcodec.a(h264_loopfilter.o)
 .rodata        0x00236b8c        0x4 /home/chris/work/ffmpeg/refs/ffmpeg-armv7/lib/libavcodec.a(h264_mp4toannexb_bsf.o)
 .rodata.str1.4
                0x00236b90       0xac /home/chris/work/ffmpeg/refs/ffmpeg-armv7/lib/libavcodec.a(h264_mp4toannexb_bsf.o)
 .rodata        0x00236c3c        0x8 /home/chris/work/ffmpeg/refs/ffmpeg-armv7/lib/libavcodec.a(h264_parser.o)
 .rodata.str1.4
                0x00236c44       0xf4 /home/chris/work/ffmpeg/refs/ffmpeg-armv7/lib/libavcodec.a(h264_parser.o)
 .rodata        0x00236d38      0x3b8 /home/chris/work/ffmpeg/refs/ffmpeg-armv7/lib/libavcodec.a(h264_ps.o)
                0x00236e88                ff_h264_chroma_qp
 .rodata.str1.4
                0x002370f0      0x4e8 /home/chris/work/ffmpeg/refs/ffmpeg-armv7/lib/libavcodec.a(h264_ps.o)
 .rodata.str1.4
                0x002375d8      0x3c4 /home/chris/work/ffmpeg/refs/ffmpeg-armv7/lib/libavcodec.a(h264_refs.o)
 .rodata        0x0023799c        0xc /home/chris/work/ffmpeg/refs/ffmpeg-armv7/lib/libavcodec.a(h264_sei.o)
 .rodata.str1.4
                0x002379a8       0x94 /home/chris/work/ffmpeg/refs/ffmpeg-armv7/lib/libavcodec.a(h264_sei.o)
 .rodata.str1.4
                0x00237a3c       0x48 /home/chris/work/ffmpeg/refs/ffmpeg-armv7/lib/libavcodec.a(h264dsp.o)
 .rodata        0x00237a84       0x34 /home/chris/work/ffmpeg/refs/ffmpeg-armv7/lib/libavcodec.a(h264idct.o)
 .rodata.str1.4
                0x00237ab8       0x48 /home/chris/work/ffmpeg/refs/ffmpeg-armv7/lib/libavcodec.a(h264pred.o)
 .rodata        0x00237b00       0x10 /home/chris/work/ffmpeg/refs/ffmpeg-armv7/lib/libavcodec.a(imx_dump_header_bsf.o)
 .rodata.str1.4
                0x00237b10       0x40 /home/chris/work/ffmpeg/refs/ffmpeg-armv7/lib/libavcodec.a(imx_dump_header_bsf.o)
 .rodata        0x00237b50       0x50 /home/chris/work/ffmpeg/refs/ffmpeg-armv7/lib/libavcodec.a(ituh263dec.o)
 .rodata.str1.4
                0x00237ba0      0x2e4 /home/chris/work/ffmpeg/refs/ffmpeg-armv7/lib/libavcodec.a(ituh263dec.o)
 .rodata        0x00237e84      0xf44 /home/chris/work/ffmpeg/refs/ffmpeg-armv7/lib/libavcodec.a(mathtables.o)
                0x00237e84                ff_zigzag_direct
                0x00237ec4                ff_cropTbl
                0x002387c4                ff_reverse
                0x002388c4                ff_sqrt_tab
                0x002389c4                ff_inverse
 .rodata        0x00238dc8       0x3c /home/chris/work/ffmpeg/refs/ffmpeg-armv7/lib/libavcodec.a(mjpeg2jpeg_bsf.o)
 .rodata.str1.4
                0x00238e04       0x44 /home/chris/work/ffmpeg/refs/ffmpeg-armv7/lib/libavcodec.a(mjpeg2jpeg_bsf.o)
 .rodata.str1.4
                0x00238e48       0x94 /home/chris/work/ffmpeg/refs/ffmpeg-armv7/lib/libavcodec.a(mjpega_dump_header_bsf.o)
 .rodata.str1.4
                0x00238edc       0x18 /home/chris/work/ffmpeg/refs/ffmpeg-armv7/lib/libavcodec.a(movsub_bsf.o)
 .rodata.str1.4
                0x00238ef4       0x5c /home/chris/work/ffmpeg/refs/ffmpeg-armv7/lib/libavcodec.a(mp3_header_compress_bsf.o)
 .rodata.str1.4
                0x00238f50       0x50 /home/chris/work/ffmpeg/refs/ffmpeg-armv7/lib/libavcodec.a(mp3_header_decompress_bsf.o)
 .rodata        0x00238fa0       0xac /home/chris/work/ffmpeg/refs/ffmpeg-armv7/lib/libavcodec.a(mpeg12.o)
 .rodata.str1.4
                0x0023904c      0x790 /home/chris/work/ffmpeg/refs/ffmpeg-armv7/lib/libavcodec.a(mpeg12.o)
 .rodata        0x002397dc      0xb54 /home/chris/work/ffmpeg/refs/ffmpeg-armv7/lib/libavcodec.a(mpeg12data.o)
                0x002397dc                ff_mpeg2_aspect
                0x0023985c                ff_mpeg1_aspect
                0x0023989c                ff_mpeg2_frame_rate_tab
                0x00239a94                ff_mpeg12_frame_rate_tab
                0x00239b14                ff_mpeg12_mbMotionVectorTable
                0x00239b38                ff_mpeg12_mbPatTable
                0x00239bb8                ff_mpeg12_mbAddrIncrTable
                0x00239c00                ff_mpeg12_vlc_dc_chroma_bits
                0x00239c0c                ff_mpeg12_vlc_dc_chroma_code
                0x00239c24                ff_mpeg12_vlc_dc_lum_bits
                0x00239c30                ff_mpeg12_vlc_dc_lum_code
                0x00239c48                ff_mpeg1_default_non_intra_matrix
                0x00239cc8                ff_mpeg1_default_intra_matrix
 .rodata        0x0023a330       0x48 /home/chris/work/ffmpeg/refs/ffmpeg-armv7/lib/libavcodec.a(mpeg4audio.o)
                0x0023a338                avpriv_mpeg4audio_sample_rates
                0x0023a330                ff_mpeg4audio_channels
 .rodata        0x0023a378      0xc40 /home/chris/work/ffmpeg/refs/ffmpeg-armv7/lib/libavcodec.a(mpeg4video.o)
                0x0023a378                ff_mpeg4_dc_threshold
                0x0023a380                ff_mpeg4_resync_prefix
                0x0023a390                ff_mpeg4_c_dc_scale_table
                0x0023a3b0                ff_mpeg4_y_dc_scale_table
                0x0023a3d0                ff_mpeg4_default_non_intra_matrix
                0x0023a450                ff_mpeg4_default_intra_matrix
                0x0023a4d0                ff_mb_type_b_tab
                0x0023a4d8                ff_sprite_trajectory_tab
                0x0023a514                ff_mpeg4_intra_run
                0x0023a57c                ff_mpeg4_intra_level
                0x0023a5e4                ff_mpeg4_intra_vlc
                0x0023a780                ff_mpeg4_DCtab_chrom
                0x0023a79c                ff_mpeg4_DCtab_lum
 .rodata        0x0023afb8        0x8 /home/chris/work/ffmpeg/refs/ffmpeg-armv7/lib/libavcodec.a(mpeg4video_parser.o)
 .rodata        0x0023afc0       0x1c /home/chris/work/ffmpeg/refs/ffmpeg-armv7/lib/libavcodec.a(mpeg4videodec.o)
 .rodata.str1.4
                0x0023afdc      0xe8c /home/chris/work/ffmpeg/refs/ffmpeg-armv7/lib/libavcodec.a(mpeg4videodec.o)
 .rodata        0x0023be68      0x3b8 /home/chris/work/ffmpeg/refs/ffmpeg-armv7/lib/libavcodec.a(mpegaudiodata.o)
                0x0023be68                ff_mpa_quant_bits
                0x0023beac                ff_mpa_quant_steps
                0x0023bef0                ff_mpa_sblimit_table
                0x0023bf04                avpriv_mpa_freq_tab
                0x0023bf0c                avpriv_mpa_bitrate_tab
 .rodata        0x0023c220     0x1348 /home/chris/work/ffmpeg/refs/ffmpeg-armv7/lib/libavcodec.a(mpegaudiodec.o)
 .rodata.str1.4
                0x0023d568      0x214 /home/chris/work/ffmpeg/refs/ffmpeg-armv7/lib/libavcodec.a(mpegaudiodec.o)
 .rodata        0x0023d77c      0x238 /home/chris/work/ffmpeg/refs/ffmpeg-armv7/lib/libavcodec.a(mpegvideo.o)
                0x0023d7b4                ff_mpeg1_dc_scale_table
                0x0023d7ac                ff_pixfmt_list_420
 .rodata.str1.4
                0x0023d9b4      0x404 /home/chris/work/ffmpeg/refs/ffmpeg-armv7/lib/libavcodec.a(mpegvideo.o)
 .rodata        0x0023ddb8       0x30 /home/chris/work/ffmpeg/refs/ffmpeg-armv7/lib/libavcodec.a(mpegvideo_motion.o)
 .rodata.str1.4
                0x0023dde8       0x2c /home/chris/work/ffmpeg/refs/ffmpeg-armv7/lib/libavcodec.a(mpegvideo_motion.o)
 .rodata.str1.4
                0x0023de14        0x8 /home/chris/work/ffmpeg/refs/ffmpeg-armv7/lib/libavcodec.a(noise_bsf.o)
 .rodata.str1.4
                0x0023de1c     0x2de0 /home/chris/work/ffmpeg/refs/ffmpeg-armv7/lib/libavcodec.a(options.o)
 .rodata        0x00240bfc      0x4d0 /home/chris/work/ffmpeg/refs/ffmpeg-armv7/lib/libavcodec.a(raw.o)
                0x00240bfc                ff_raw_pix_fmt_tags
 .rodata        0x002410cc       0x98 /home/chris/work/ffmpeg/refs/ffmpeg-armv7/lib/libavcodec.a(rawdec.o)
 .rodata.str1.4
                0x00241164      0x124 /home/chris/work/ffmpeg/refs/ffmpeg-armv7/lib/libavcodec.a(rawdec.o)
 .rodata.str1.4
                0x00241288       0x10 /home/chris/work/ffmpeg/refs/ffmpeg-armv7/lib/libavcodec.a(remove_extradata_bsf.o)
 .rodata        0x00241298       0x58 /home/chris/work/ffmpeg/refs/ffmpeg-armv7/lib/libavcodec.a(utils.o)
 .rodata.str1.4
                0x002412f0     0x1348 /home/chris/work/ffmpeg/refs/ffmpeg-armv7/lib/libavcodec.a(utils.o)
 .rodata.str1.4
                0x00242638       0xa8 /home/chris/work/ffmpeg/refs/ffmpeg-armv7/lib/libavcodec.a(aac_adtstoasc_bsf.o)
 .rodata        0x002426e0      0x180 /home/chris/work/ffmpeg/refs/ffmpeg-armv7/lib/libavcodec.a(aacdec.o)
 .rodata.str1.4
                0x00242860      0x98c /home/chris/work/ffmpeg/refs/ffmpeg-armv7/lib/libavcodec.a(aacdec.o)
 .rodata        0x002431f0     0x1b80 /home/chris/work/ffmpeg/refs/ffmpeg-armv7/lib/libavcodec.a(aacsbr.o)
                0x00243d60                ff_sbr_noise_table
 .rodata.str1.4
                0x00244d70      0x4c4 /home/chris/work/ffmpeg/refs/ffmpeg-armv7/lib/libavcodec.a(aacsbr.o)
 .rodata        0x00245240     0x3780 /home/chris/work/ffmpeg/refs/ffmpeg-armv7/lib/libavcodec.a(aactab.o)
                0x00245240                ff_tns_max_bands_128
                0x00245250                ff_tns_max_bands_1024
                0x00245260                ff_aac_spectral_sizes
                0x00245278                ff_aac_scalefactor_bits
                0x002452f4                ff_aac_scalefactor_code
                0x002454d8                ff_aac_pred_sfb_max
                0x002454e8                ff_aac_num_swb_128
                0x002454f8                ff_aac_num_swb_1024
 .rodata        0x002489c0        0xc /home/chris/work/ffmpeg/refs/ffmpeg-armv7/lib/libavcodec.a(ac3_parser.o)
 .rodata        0x002489cc       0x84 /home/chris/work/ffmpeg/refs/ffmpeg-armv7/lib/libavcodec.a(ac3dec.o)
 .rodata.str1.4
                0x00248a50      0x504 /home/chris/work/ffmpeg/refs/ffmpeg-armv7/lib/libavcodec.a(ac3dec.o)
 .rodata        0x00248f54       0xb4 /home/chris/work/ffmpeg/refs/ffmpeg-armv7/lib/libavcodec.a(ac3dec_data.o)
                0x00248f54                ff_eac3_default_spx_band_struct
                0x00248f68                ff_eac3_hebap_tab
                0x00248fa8                ff_ac3_ungroup_3_in_5_bits_tab
 .rodata        0x00249010       0x20 /home/chris/work/ffmpeg/refs/ffmpeg-armv7/lib/libavcodec.a(ac3dsp.o)
                0x00249010                ff_ac3_bap_bits
 .rodata        0x00249030       0x30 /home/chris/work/ffmpeg/refs/ffmpeg-armv7/lib/libavcodec.a(h264idct_neon.o)
 .rodata        0x00249060       0x10 /home/chris/work/ffmpeg/refs/ffmpeg-armv7/lib/libavcodec.a(h264pred_neon.o)
 .rodata        0x00249070       0x2c /home/chris/work/ffmpeg/refs/ffmpeg-armv7/lib/libavcodec.a(bitstream.o)
                0x00249070                ff_log2_run
 .rodata.str1.4
                0x0024909c       0xb8 /home/chris/work/ffmpeg/refs/ffmpeg-armv7/lib/libavcodec.a(bitstream.o)
 .rodata        0x00249154      0x1c0 /home/chris/work/ffmpeg/refs/ffmpeg-armv7/lib/libavcodec.a(cabac.o)
 .rodata        0x00249314      0x108 /home/chris/work/ffmpeg/refs/ffmpeg-armv7/lib/libavcodec.a(dsputil.o)
                0x0024935c                ff_alternate_vertical_scan
                0x0024939c                ff_alternate_horizontal_scan
                0x002493dc                ff_zigzag248_direct
 .rodata.str1.4
                0x0024941c       0x58 /home/chris/work/ffmpeg/refs/ffmpeg-armv7/lib/libavcodec.a(dsputil.o)
 .rodata.str1.4
                0x00249474      0x184 /home/chris/work/ffmpeg/refs/ffmpeg-armv7/lib/libavcodec.a(error_resilience.o)
 .rodata        0x002495f8      0x100 /home/chris/work/ffmpeg/refs/ffmpeg-armv7/lib/libavcodec.a(faanidct.o)
 .rodata        0x002496f8       0x40 /home/chris/work/ffmpeg/refs/ffmpeg-armv7/lib/libavcodec.a(fft_float.o)
 .rodata        0x00249738      0xb00 /home/chris/work/ffmpeg/refs/ffmpeg-armv7/lib/libavcodec.a(golomb.o)
                0x00249738                ff_interleaved_dirac_golomb_vlc_code
                0x00249838                ff_interleaved_se_golomb_vlc_code
                0x00249938                ff_interleaved_ue_golomb_vlc_code
                0x00249a38                ff_interleaved_golomb_vlc_len
                0x00249b38                ff_ue_golomb_len
                0x00249c38                ff_se_golomb_vlc_code
                0x00249e38                ff_ue_golomb_vlc_code
                0x0024a038                ff_golomb_vlc_len
 .rodata        0x0024a238      0x718 /home/chris/work/ffmpeg/refs/ffmpeg-armv7/lib/libavcodec.a(h263.o)
                0x0024a248                ff_h263_pixel_aspect
                0x0024a2c8                ff_h263_loop_filter_strength
                0x0024a2e8                ff_mba_length
                0x0024a2f0                ff_mba_max
                0x0024a2fc                ff_h263_chroma_qscale_table
                0x0024a31c                ff_modified_quant_tab
                0x0024a35c                ff_aic_dc_scale_table
                0x0024a37c                ff_h263_format
                0x0024a39c                ff_inter_run
                0x0024a404                ff_inter_level
                0x0024a46c                ff_inter_vlc
                0x0024a608                ff_mvtab
                0x0024a64c                ff_h263_cbpy_tab
                0x0024a66c                ff_cbpc_b_tab
                0x0024a674                ff_h263_mbtype_b_tab
                0x0024a694                ff_h263_inter_MCBPC_bits
                0x0024a6b0                ff_h263_inter_MCBPC_code
                0x0024a6cc                ff_h263_intra_MCBPC_bits
                0x0024a6d8                ff_h263_intra_MCBPC_code
 .rodata.str1.4
                0x0024a950       0x48 /home/chris/work/ffmpeg/refs/ffmpeg-armv7/lib/libavcodec.a(imgconvert.o)
 .rodata.str1.4
                0x0024a998       0x40 /home/chris/work/ffmpeg/refs/ffmpeg-armv7/lib/libavcodec.a(kbdwin.o)
 .rodata        0x0024a9d8      0x1a4 /home/chris/work/ffmpeg/refs/ffmpeg-armv7/lib/libavcodec.a(mjpeg.o)
                0x0024a9d8                avpriv_mjpeg_val_ac_chrominance
                0x0024aa7c                avpriv_mjpeg_bits_ac_chrominance
                0x0024aa90                avpriv_mjpeg_val_ac_luminance
                0x0024ab34                avpriv_mjpeg_bits_ac_luminance
                0x0024ab48                avpriv_mjpeg_bits_dc_chrominance
                0x0024ab5c                avpriv_mjpeg_val_dc
                0x0024ab68                avpriv_mjpeg_bits_dc_luminance
 .rodata        0x0024ab7c      0x404 /home/chris/work/ffmpeg/refs/ffmpeg-armv7/lib/libavcodec.a(mpegaudiodsp_data.o)
                0x0024ab7c                ff_mpa_enwindow
 .rodata        0x0024af80      0x698 /home/chris/work/ffmpeg/refs/ffmpeg-armv7/lib/libavcodec.a(aacps.o)
 .rodata.str1.4
                0x0024b618       0xcc /home/chris/work/ffmpeg/refs/ffmpeg-armv7/lib/libavcodec.a(aacps.o)
 .rodata        0x0024b6e4       0x34 /home/chris/work/ffmpeg/refs/ffmpeg-armv7/lib/libavcodec.a(ac3.o)
                0x0024b6e4                ff_ac3_band_start_tab
 .rodata        0x0024b720       0x60 /home/chris/work/ffmpeg/refs/ffmpeg-armv7/lib/libavcodec.a(fft_neon.o)
 .rodata        0x0024b780       0x34 /home/chris/work/ffmpeg/refs/ffmpeg-armv7/lib/libavcodec.a(jrevdct_arm.o)
 .rodata        0x0024b7c0       0x10 /home/chris/work/ffmpeg/refs/ffmpeg-armv7/lib/libavcodec.a(simple_idct_neon.o)
 .rodata        0x0024b7d0       0x48 /home/chris/work/ffmpeg/refs/ffmpeg-armv7/lib/libswscale.a(swscale.o)
                0x0024b7d0                ff_sws_pb_64
                0x0024b7d8                dither_8x8_128
 .rodata.str1.4
                0x0024b818      0x2ac /home/chris/work/ffmpeg/refs/ffmpeg-armv7/lib/libswscale.a(swscale.o)
 .rodata        0x0024bac8      0x9f8 /home/chris/work/ffmpeg/refs/ffmpeg-armv7/lib/libswscale.a(utils.o)
 .rodata.str1.4
                0x0024c4c0      0xb20 /home/chris/work/ffmpeg/refs/ffmpeg-armv7/lib/libswscale.a(utils.o)
 .rodata        0x0024cfe0       0x80 /home/chris/work/ffmpeg/refs/ffmpeg-armv7/lib/libswscale.a(yuv2rgb.o)
                0x0024cfe0                ff_yuv2rgb_coeffs
 .rodata.str1.4
                0x0024d060       0xa4 /home/chris/work/ffmpeg/refs/ffmpeg-armv7/lib/libswscale.a(yuv2rgb.o)
 .rodata.str1.4
                0x0024d104       0x48 /home/chris/work/ffmpeg/refs/ffmpeg-armv7/lib/libswscale.a(input.o)
 .rodata.str1.4
                0x0024d14c      0x2f4 /home/chris/work/ffmpeg/refs/ffmpeg-armv7/lib/libswscale.a(options.o)
 .rodata        0x0024d440      0x130 /home/chris/work/ffmpeg/refs/ffmpeg-armv7/lib/libswscale.a(output.o)
                0x0024d440                dither_8x8_220
                0x0024d558                dither_2x2_4
                0x0024d540                dither_2x2_8
                0x0024d518                dither_4x4_16
                0x0024d488                dither_8x8_73
                0x0024d4d0                dither_8x8_32
 .rodata.str1.4
                0x0024d570       0x60 /home/chris/work/ffmpeg/refs/ffmpeg-armv7/lib/libswscale.a(output.o)
 .rodata        0x0024d5d0      0x3e0 /home/chris/work/ffmpeg/refs/ffmpeg-armv7/lib/libswscale.a(swscale_unscaled.o)
                0x0024d5d0                dither_scale
                0x0024d7b0                dithers
 .rodata.str1.4
                0x0024d9b0       0x98 /home/chris/work/ffmpeg/refs/ffmpeg-armv7/lib/libswscale.a(swscale_unscaled.o)
 .rodata.str1.4
                0x0024da48     0x14ec /home/chris/work/ffmpeg/refs/ffmpeg-armv7/lib/libswresample.a(swresample.o)
 .rodata.str1.4
                0x0024ef34       0x60 /home/chris/work/ffmpeg/refs/ffmpeg-armv7/lib/libswresample.a(audioconvert.o)
 .rodata        0x0024ef98      0x760 /home/chris/work/ffmpeg/refs/ffmpeg-armv7/lib/libswresample.a(dither.o)
 .rodata.str1.4
                0x0024f6f8       0xd4 /home/chris/work/ffmpeg/refs/ffmpeg-armv7/lib/libswresample.a(dither.o)
 .rodata.str1.4
                0x0024f7cc      0x14c /home/chris/work/ffmpeg/refs/ffmpeg-armv7/lib/libswresample.a(rematrix.o)
 .rodata        0x0024f918      0x320 /home/chris/work/ffmpeg/refs/ffmpeg-armv7/lib/libswresample.a(resample.o)
 .rodata.str1.4
                0x0024fc38       0x68 /home/chris/work/ffmpeg/refs/ffmpeg-armv7/lib/libswresample.a(resample.o)
 .rodata.str1.4
                0x0024fca0        0xc /home/chris/work/ffmpeg/refs/ffmpeg-armv7/lib/libavutil.a(avstring.o)
 .rodata        0x0024fcac      0x144 /home/chris/work/ffmpeg/refs/ffmpeg-armv7/lib/libavutil.a(base64.o)
 .rodata        0x0024fdf0       0x1c /home/chris/work/ffmpeg/refs/ffmpeg-armv7/lib/libavutil.a(bprint.o)
 .rodata.str1.4
                0x0024fe0c       0x14 /home/chris/work/ffmpeg/refs/ffmpeg-armv7/lib/libavutil.a(bprint.o)
 .rodata.str1.4
                0x0024fe20      0x2e4 /home/chris/work/ffmpeg/refs/ffmpeg-armv7/lib/libavutil.a(channel_layout.o)
 .rodata.str1.4
                0x00250104       0x40 /home/chris/work/ffmpeg/refs/ffmpeg-armv7/lib/libavutil.a(cpu.o)
 .rodata        0x00250144       0x28 /home/chris/work/ffmpeg/refs/ffmpeg-armv7/lib/libavutil.a(crc.o)
 .rodata.str1.4
                0x0025016c        0x4 /home/chris/work/ffmpeg/refs/ffmpeg-armv7/lib/libavutil.a(dict.o)
 .rodata.str1.4
                0x00250170      0x304 /home/chris/work/ffmpeg/refs/ffmpeg-armv7/lib/libavutil.a(error.o)
 .rodata.str1.4
                0x00250474       0xc4 /home/chris/work/ffmpeg/refs/ffmpeg-armv7/lib/libavutil.a(imgutils.o)
 .rodata        0x00250538       0x6c /home/chris/work/ffmpeg/refs/ffmpeg-armv7/lib/libavutil.a(log.o)
 .rodata.str1.4
                0x002505a4       0xe0 /home/chris/work/ffmpeg/refs/ffmpeg-armv7/lib/libavutil.a(log.o)
 .rodata        0x00250684      0x100 /home/chris/work/ffmpeg/refs/ffmpeg-armv7/lib/libavutil.a(log2_tab.o)
                0x00250684                ff_log2_tab
 .rodata        0x00250784      0x100 /home/chris/work/ffmpeg/refs/ffmpeg-armv7/lib/libavutil.a(mathematics.o)
                0x00250784                av_reverse
 .rodata.str1.4
                0x00250884       0x74 /home/chris/work/ffmpeg/refs/ffmpeg-armv7/lib/libavutil.a(mathematics.o)
 .rodata        0x002508f8        0x4 /home/chris/work/ffmpeg/refs/ffmpeg-armv7/lib/libavutil.a(md5.o)
                0x002508f8                av_md5_size
 .rodata.str1.4
                0x002508fc        0x8 /home/chris/work/ffmpeg/refs/ffmpeg-armv7/lib/libavutil.a(md5.o)
 .rodata        0x00250908       0x20 /home/chris/work/ffmpeg/refs/ffmpeg-armv7/lib/libavutil.a(opt.o)
 .rodata.str1.4
                0x00250928      0x508 /home/chris/work/ffmpeg/refs/ffmpeg-armv7/lib/libavutil.a(opt.o)
 .rodata.str1.4
                0x00250e30      0x870 /home/chris/work/ffmpeg/refs/ffmpeg-armv7/lib/libavutil.a(parseutils.o)
 .rodata.str1.4
                0x002516a0      0x624 /home/chris/work/ffmpeg/refs/ffmpeg-armv7/lib/libavutil.a(pixdesc.o)
 .rodata.str1.4
                0x00251cc4       0x70 /home/chris/work/ffmpeg/refs/ffmpeg-armv7/lib/libavutil.a(random_seed.o)
 .rodata        0x00251d34       0xc8 /home/chris/work/ffmpeg/refs/ffmpeg-armv7/lib/libavutil.a(samplefmt.o)
 .rodata.str1.4
                0x00251dfc       0x1c /home/chris/work/ffmpeg/refs/ffmpeg-armv7/lib/libavutil.a(samplefmt.o)
 .rodata        0x00251e18      0x104 /home/chris/work/ffmpeg/refs/ffmpeg-armv7/lib/libavutil.a(sha.o)
                0x00251f18                av_sha_size
 .rodata.str1.4
                0x00251f1c        0x8 /home/chris/work/ffmpeg/refs/ffmpeg-armv7/lib/libavutil.a(sha.o)
 .rodata.str1.4
                0x00251f24      0x110 /home/chris/work/ffmpeg/refs/ffmpeg-armv7/lib/libavutil.a(timecode.o)
 .rodata        0x00252034        0x8 /home/chris/work/ffmpeg/refs/ffmpeg-armv7/lib/libavutil.a(utils.o)
 .rodata.str1.4
                0x0025203c      0x578 /home/chris/work/ffmpeg/refs/ffmpeg-armv7/lib/libavutil.a(utils.o)
 .rodata.str1.4
                0x002525b4       0x30 /home/chris/work/ffmpeg/refs/ffmpeg-armv7/lib/libavutil.a(cpu.o)
 .rodata        0x002525e4       0x38 /home/chris/work/ffmpeg/refs/ffmpeg-armv7/lib/libavutil.a(eval.o)
 .rodata.str1.4
                0x0025261c      0x1d4 /home/chris/work/ffmpeg/refs/ffmpeg-armv7/lib/libavutil.a(eval.o)

.data.rel.ro.local
                0x00253c58     0xb1c8
 .data.rel.ro.local
                0x00253c58       0x2c /home/chris/work/ffmpeg/refs/ffmpeg-armv7/lib/libavformat.a(avio.o)
                0x00253c58                ffurl_context_class
 .data.rel.ro.local
                0x00253c88       0x60 /home/chris/work/ffmpeg/refs/ffmpeg-armv7/lib/libavformat.a(file.o)
 .data.rel.ro.local
                0x00253ce8       0x60 /home/chris/work/ffmpeg/refs/ffmpeg-armv7/lib/libavformat.a(flvdec.o)
 .data.rel.ro.local
                0x00253d48      0x210 /home/chris/work/ffmpeg/refs/ffmpeg-armv7/lib/libavformat.a(http.o)
 .data.rel.ro.local
                0x00253f58      0x288 /home/chris/work/ffmpeg/refs/ffmpeg-armv7/lib/libavformat.a(mov.o)
 .data.rel.ro.local
                0x002541e0       0xa8 /home/chris/work/ffmpeg/refs/ffmpeg-armv7/lib/libavformat.a(mov_chan.o)
 .data.rel.ro.local
                0x00254288       0x60 /home/chris/work/ffmpeg/refs/ffmpeg-armv7/lib/libavformat.a(mpegts.o)
 .data.rel.ro.local
                0x002542e8      0x7e0 /home/chris/work/ffmpeg/refs/ffmpeg-armv7/lib/libavformat.a(options.o)
 .data.rel.ro.local
                0x00254ac8       0x60 /home/chris/work/ffmpeg/refs/ffmpeg-armv7/lib/libavformat.a(rawdec.o)
                0x00254ac8                ff_rawvideo_options
 .data.rel.ro.local
                0x00254b28       0x68 /home/chris/work/ffmpeg/refs/ffmpeg-armv7/lib/libavformat.a(riff.o)
                0x00254b28                ff_riff_info_conv
 .data.rel.ro.local
                0x00254b90       0xc0 /home/chris/work/ffmpeg/refs/ffmpeg-armv7/lib/libavformat.a(tcp.o)
 .data.rel.ro.local
                0x00254c50       0x78 /home/chris/work/ffmpeg/refs/ffmpeg-armv7/lib/libavformat.a(utils.o)
 .data.rel.ro.local
                0x00254cc8      0x250 /home/chris/work/ffmpeg/refs/ffmpeg-armv7/lib/libavformat.a(id3v1.o)
                0x00254cc8                ff_id3v1_genre_str
 .data.rel.ro.local
                0x00254f18      0x138 /home/chris/work/ffmpeg/refs/ffmpeg-armv7/lib/libavformat.a(id3v2.o)
                0x00254fd8                ff_id3v2_34_metadata_conv
                0x00254fa0                ff_id3v2_4_metadata_conv
 .data.rel.ro.local
                0x00255050     0x1bf8 /home/chris/work/ffmpeg/refs/ffmpeg-armv7/lib/libavcodec.a(codec_desc.o)
 .data.rel.ro.local
                0x00256c48      0x100 /home/chris/work/ffmpeg/refs/ffmpeg-armv7/lib/libavcodec.a(h264.o)
 .data.rel.ro.local
                0x00256d48       0x48 /home/chris/work/ffmpeg/refs/ffmpeg-armv7/lib/libavcodec.a(mpeg12.o)
 .data.rel.ro.local
                0x00256d90      0x118 /home/chris/work/ffmpeg/refs/ffmpeg-armv7/lib/libavcodec.a(mpeg4videodec.o)
 .data.rel.ro.local
                0x00256ea8       0x14 /home/chris/work/ffmpeg/refs/ffmpeg-armv7/lib/libavcodec.a(mpegaudiodata.o)
                0x00256ea8                ff_mpa_alloc_tables
 .data.rel.ro.local
                0x00256ebc       0xd0 /home/chris/work/ffmpeg/refs/ffmpeg-armv7/lib/libavcodec.a(mpegaudiodec.o)
 .data.rel.ro.local
                0x00256f90     0x4288 /home/chris/work/ffmpeg/refs/ffmpeg-armv7/lib/libavcodec.a(options.o)
 .data.rel.ro.local
                0x0025b218       0x90 /home/chris/work/ffmpeg/refs/ffmpeg-armv7/lib/libavcodec.a(rawdec.o)
 .data.rel.ro.local
                0x0025b2a8      0x130 /home/chris/work/ffmpeg/refs/ffmpeg-armv7/lib/libavcodec.a(aacdec.o)
 .data.rel.ro.local
                0x0025b3d8      0x144 /home/chris/work/ffmpeg/refs/ffmpeg-armv7/lib/libavcodec.a(aactab.o)
                0x0025b3d8                ff_swb_offset_128
                0x0025b40c                ff_swb_offset_1024
                0x0025b440                ff_aac_codebook_vector_idx
                0x0025b46c                ff_aac_codebook_vector_vals
                0x0025b498                ff_aac_codebook_vectors
                0x0025b4c4                ff_aac_spectral_bits
                0x0025b4f0                ff_aac_spectral_codes
 .data.rel.ro.local
                0x0025b520      0x150 /home/chris/work/ffmpeg/refs/ffmpeg-armv7/lib/libavcodec.a(ac3dec.o)
 .data.rel.ro.local
                0x0025b670       0x3c /home/chris/work/ffmpeg/refs/ffmpeg-armv7/lib/libavcodec.a(fft_float.o)
 .data.rel.ro.local
                0x0025b6b0      0x5a0 /home/chris/work/ffmpeg/refs/ffmpeg-armv7/lib/libswscale.a(options.o)
                0x0025b6b0                sws_context_class
 .data.rel.ro.local
                0x0025bc50      0xd20 /home/chris/work/ffmpeg/refs/ffmpeg-armv7/lib/libswresample.a(swresample.o)
 .data.rel.ro.local
                0x0025c970      0x190 /home/chris/work/ffmpeg/refs/ffmpeg-armv7/lib/libswresample.a(audioconvert.o)
 .data.rel.ro.local
                0x0025cb00      0x180 /home/chris/work/ffmpeg/refs/ffmpeg-armv7/lib/libswresample.a(dither.o)
 .data.rel.ro.local
                0x0025cc80       0x18 /home/chris/work/ffmpeg/refs/ffmpeg-armv7/lib/libswresample.a(resample.o)
                0x0025cc80                swri_resampler
 .data.rel.ro.local
                0x0025cc98      0x2d0 /home/chris/work/ffmpeg/refs/ffmpeg-armv7/lib/libavutil.a(channel_layout.o)
 .data.rel.ro.local
                0x0025cf68      0x300 /home/chris/work/ffmpeg/refs/ffmpeg-armv7/lib/libavutil.a(cpu.o)
 .data.rel.ro.local
                0x0025d268       0xe4 /home/chris/work/ffmpeg/refs/ffmpeg-armv7/lib/libavutil.a(error.o)
 .data.rel.ro.local
                0x0025d34c       0x10 /home/chris/work/ffmpeg/refs/ffmpeg-armv7/lib/libavutil.a(opt.o)
 .data.rel.ro.local
                0x0025d35c      0x6c4 /home/chris/work/ffmpeg/refs/ffmpeg-armv7/lib/libavutil.a(parseutils.o)
 .data.rel.ro.local
                0x0025da20     0x13d0 /home/chris/work/ffmpeg/refs/ffmpeg-armv7/lib/libavutil.a(pixdesc.o)
                0x0025da20                av_pix_fmt_descriptors
 .data.rel.ro.local
                0x0025edf0       0x30 /home/chris/work/ffmpeg/refs/ffmpeg-armv7/lib/libavutil.a(eval.o)

.fini_array     0x0025ee20        0x8
 .fini_array    0x0025ee20        0x4 /home/chris/work/android/android-ndk-r8d/platforms/android-14/arch-arm/usr/lib/crtbegin_so.o
 .fini_array    0x0025ee24        0x4 /home/chris/work/android/android-ndk-r8d/platforms/android-14/arch-arm/usr/lib/crtend_so.o

.data.rel.ro    0x0025ee28      0x390
 .data.rel.ro   0x0025ee28       0x2c /home/chris/work/ffmpeg/refs/ffmpeg-armv7/lib/libavformat.a(file.o)
 .data.rel.ro   0x0025ee54       0x2c /home/chris/work/ffmpeg/refs/ffmpeg-armv7/lib/libavformat.a(flvdec.o)
 .data.rel.ro   0x0025ee80       0x2c /home/chris/work/ffmpeg/refs/ffmpeg-armv7/lib/libavformat.a(http.o)
 .data.rel.ro   0x0025eeac       0x2c /home/chris/work/ffmpeg/refs/ffmpeg-armv7/lib/libavformat.a(mov.o)
 .data.rel.ro   0x0025eed8       0x2c /home/chris/work/ffmpeg/refs/ffmpeg-armv7/lib/libavformat.a(mpegts.o)
 .data.rel.ro   0x0025ef04       0x2c /home/chris/work/ffmpeg/refs/ffmpeg-armv7/lib/libavformat.a(mpegvideodec.o)
 .data.rel.ro   0x0025ef30       0x2c /home/chris/work/ffmpeg/refs/ffmpeg-armv7/lib/libavformat.a(tcp.o)
 .data.rel.ro   0x0025ef5c       0x2c /home/chris/work/ffmpeg/refs/ffmpeg-armv7/lib/libavformat.a(aviobuf.o)
                0x0025ef5c                ffio_url_class
 .data.rel.ro   0x0025ef88       0x2c /home/chris/work/ffmpeg/refs/ffmpeg-armv7/lib/libavcodec.a(h264.o)
 .data.rel.ro   0x0025efb4       0x2c /home/chris/work/ffmpeg/refs/ffmpeg-armv7/lib/libavcodec.a(mpeg4videodec.o)
 .data.rel.ro   0x0025efe0       0x10 /home/chris/work/ffmpeg/refs/ffmpeg-armv7/lib/libavcodec.a(mpegvideo.o)
                0x0025efe0                ff_mpeg2_dc_scale_table
 .data.rel.ro   0x0025eff0       0x2c /home/chris/work/ffmpeg/refs/ffmpeg-armv7/lib/libavcodec.a(aacdec.o)
 .data.rel.ro   0x0025f01c       0x2c /home/chris/work/ffmpeg/refs/ffmpeg-armv7/lib/libavcodec.a(ac3dec.o)
 .data.rel.ro   0x0025f048       0x44 /home/chris/work/ffmpeg/refs/ffmpeg-armv7/lib/libavcodec.a(fft_float.o)
                0x0025f048                ff_cos_tabs
 .data.rel.ro   0x0025f08c       0x44 /home/chris/work/ffmpeg/refs/ffmpeg-armv7/lib/libavcodec.a(rdft.o)
 .data.rel.ro   0x0025f0d0       0x38 /home/chris/work/ffmpeg/refs/ffmpeg-armv7/lib/libavcodec.a(sinewin.o)
                0x0025f0d0                ff_sine_windows
 .data.rel.ro   0x0025f108       0x58 /home/chris/work/ffmpeg/refs/ffmpeg-armv7/lib/libavutil.a(cpu.o)
 .data.rel.ro   0x0025f160       0x2c /home/chris/work/ffmpeg/refs/ffmpeg-armv7/lib/libavutil.a(imgutils.o)
 .data.rel.ro   0x0025f18c       0x2c /home/chris/work/ffmpeg/refs/ffmpeg-armv7/lib/libavutil.a(eval.o)

.init_array     0x0025f1b8        0x4
 .init_array    0x0025f1b8        0x4 /home/chris/work/android/android-ndk-r8d/platforms/android-14/arch-arm/usr/lib/crtend_so.o

.dynamic        0x0025f1bc      0x120
 ** dynamic     0x0025f1bc      0x120

.got            0x0025f2dc      0xd24
 ** GOT         0x0025f2dc      0xb14
 ** GOT PLT     0x0025fdf0      0x210

.data           0x00260000     0x1f04
 .data          0x00260000        0x4 /home/chris/work/android/android-ndk-r8d/platforms/android-14/arch-arm/usr/lib/crtbegin_so.o
                0x00260000                __dso_handle
 .data          0x00260004        0x0 ./obj/local/armeabi/objs/xplayer/com_chris_yanlong_XPlayer.o
 .data          0x00260004        0x0 ./obj/local/armeabi/objs/xplayer/packet_queue.o
 .data          0x00260004        0x0 ./obj/local/armeabi/objs/xplayer/decode_audio.o
 .data          0x00260004        0x0 ./obj/local/armeabi/objs/xplayer/opensl_audio_play.o
 .data          0x00260004        0x0 ./obj/local/armeabi/objs/xplayer/decode_video.o
 .data          0x00260004       0x2c ./obj/local/armeabi/objs/xplayer/opengl_video_play.o
 .data          0x00260030        0x0 ./obj/local/armeabi/objs/xplayer/picture_queue.o
 .data          0x00260030        0x0 ./obj/local/armeabi/objs/xplayer/xplayer.o
 .data          0x00260030        0x0 /home/chris/work/ffmpeg/refs/ffmpeg-armv7/lib/libavformat.a(allformats.o)
 .data          0x00260030        0x0 /home/chris/work/ffmpeg/refs/ffmpeg-armv7/lib/libavformat.a(avio.o)
 .data          0x00260030        0x0 /home/chris/work/ffmpeg/refs/ffmpeg-armv7/lib/libavformat.a(file.o)
 .data.rel.local
                0x00260030       0x44 /home/chris/work/ffmpeg/refs/ffmpeg-armv7/lib/libavformat.a(file.o)
                0x00260030                ff_file_protocol
 .data          0x00260074        0x0 /home/chris/work/ffmpeg/refs/ffmpeg-armv7/lib/libavformat.a(flvdec.o)
 .data.rel.local
                0x00260074       0x48 /home/chris/work/ffmpeg/refs/ffmpeg-armv7/lib/libavformat.a(flvdec.o)
                0x00260074                ff_flv_demuxer
 .data          0x002600bc        0x0 /home/chris/work/ffmpeg/refs/ffmpeg-armv7/lib/libavformat.a(hls.o)
 .data.rel.local
                0x002600bc       0x48 /home/chris/work/ffmpeg/refs/ffmpeg-armv7/lib/libavformat.a(hls.o)
                0x002600bc                ff_hls_demuxer
 .data          0x00260104        0x0 /home/chris/work/ffmpeg/refs/ffmpeg-armv7/lib/libavformat.a(hlsproto.o)
 .data.rel.local
                0x00260104       0x88 /home/chris/work/ffmpeg/refs/ffmpeg-armv7/lib/libavformat.a(hlsproto.o)
                0x00260104                ff_hls_protocol
                0x00260148                ff_applehttp_protocol
 .data          0x0026018c        0x0 /home/chris/work/ffmpeg/refs/ffmpeg-armv7/lib/libavformat.a(http.o)
 .data.rel.local
                0x0026018c       0x44 /home/chris/work/ffmpeg/refs/ffmpeg-armv7/lib/libavformat.a(http.o)
                0x0026018c                ff_http_protocol
 .data          0x002601d0        0x0 /home/chris/work/ffmpeg/refs/ffmpeg-armv7/lib/libavformat.a(httpauth.o)
 .data          0x002601d0        0x0 /home/chris/work/ffmpeg/refs/ffmpeg-armv7/lib/libavformat.a(mov.o)
 .data.rel.local
                0x002601d0       0x48 /home/chris/work/ffmpeg/refs/ffmpeg-armv7/lib/libavformat.a(mov.o)
                0x002601d0                ff_mov_demuxer
 .data          0x00260218        0x0 /home/chris/work/ffmpeg/refs/ffmpeg-armv7/lib/libavformat.a(mov_chan.o)
 .data          0x00260218        0x0 /home/chris/work/ffmpeg/refs/ffmpeg-armv7/lib/libavformat.a(mpeg.o)
 .data.rel.local
                0x00260218       0x48 /home/chris/work/ffmpeg/refs/ffmpeg-armv7/lib/libavformat.a(mpeg.o)
                0x00260218                ff_mpegps_demuxer
 .data          0x00260260        0x0 /home/chris/work/ffmpeg/refs/ffmpeg-armv7/lib/libavformat.a(mpegts.o)
 .data.rel.local
                0x00260260       0x90 /home/chris/work/ffmpeg/refs/ffmpeg-armv7/lib/libavformat.a(mpegts.o)
                0x002602a8                ff_mpegts_demuxer
                0x00260260                ff_mpegtsraw_demuxer
 .data          0x002602f0        0x0 /home/chris/work/ffmpeg/refs/ffmpeg-armv7/lib/libavformat.a(mpegvideodec.o)
 .data.rel      0x002602f0       0x48 /home/chris/work/ffmpeg/refs/ffmpeg-armv7/lib/libavformat.a(mpegvideodec.o)
                0x002602f0                ff_mpegvideo_demuxer
 .data          0x00260338        0x0 /home/chris/work/ffmpeg/refs/ffmpeg-armv7/lib/libavformat.a(network.o)
 .data          0x00260338        0x0 /home/chris/work/ffmpeg/refs/ffmpeg-armv7/lib/libavformat.a(options.o)
 .data          0x00260338        0x0 /home/chris/work/ffmpeg/refs/ffmpeg-armv7/lib/libavformat.a(rawdec.o)
 .data          0x00260338        0x0 /home/chris/work/ffmpeg/refs/ffmpeg-armv7/lib/libavformat.a(riff.o)
 .data          0x00260338        0x0 /home/chris/work/ffmpeg/refs/ffmpeg-armv7/lib/libavformat.a(tcp.o)
 .data.rel.local
                0x00260338       0x44 /home/chris/work/ffmpeg/refs/ffmpeg-armv7/lib/libavformat.a(tcp.o)
                0x00260338                ff_tcp_protocol
 .data          0x0026037c        0x0 /home/chris/work/ffmpeg/refs/ffmpeg-armv7/lib/libavformat.a(urldecode.o)
 .data          0x0026037c        0x0 /home/chris/work/ffmpeg/refs/ffmpeg-armv7/lib/libavformat.a(utils.o)
 .data          0x0026037c        0x0 /home/chris/work/ffmpeg/refs/ffmpeg-armv7/lib/libavformat.a(aviobuf.o)
 .data          0x0026037c        0x0 /home/chris/work/ffmpeg/refs/ffmpeg-armv7/lib/libavformat.a(id3v1.o)
 .data          0x0026037c        0x0 /home/chris/work/ffmpeg/refs/ffmpeg-armv7/lib/libavformat.a(id3v2.o)
 .data.rel.local
                0x0026037c       0x54 /home/chris/work/ffmpeg/refs/ffmpeg-armv7/lib/libavformat.a(id3v2.o)
                0x0026037c                ff_id3v2_picture_types
 .data          0x002603d0        0x0 /home/chris/work/ffmpeg/refs/ffmpeg-armv7/lib/libavformat.a(isom.o)
 .data          0x002603d0        0x0 /home/chris/work/ffmpeg/refs/ffmpeg-armv7/lib/libavformat.a(metadata.o)
 .data          0x002603d0        0x0 /home/chris/work/ffmpeg/refs/ffmpeg-armv7/lib/libavformat.a(mux.o)
 .data          0x002603d0        0x0 /home/chris/work/ffmpeg/refs/ffmpeg-armv7/lib/libavformat.a(os_support.o)
 .data          0x002603d0        0x0 /home/chris/work/ffmpeg/refs/ffmpeg-armv7/lib/libavcodec.a(ac3tab.o)
 .data          0x002603d0        0x0 /home/chris/work/ffmpeg/refs/ffmpeg-armv7/lib/libavcodec.a(allcodecs.o)
 .data          0x002603d0        0x0 /home/chris/work/ffmpeg/refs/ffmpeg-armv7/lib/libavcodec.a(avpacket.o)
 .data          0x002603d0        0x0 /home/chris/work/ffmpeg/refs/ffmpeg-armv7/lib/libavcodec.a(avpicture.o)
 .data          0x002603d0        0x0 /home/chris/work/ffmpeg/refs/ffmpeg-armv7/lib/libavcodec.a(bitstream_filter.o)
 .data          0x002603d0        0x0 /home/chris/work/ffmpeg/refs/ffmpeg-armv7/lib/libavcodec.a(chomp_bsf.o)
 .data.rel.local
                0x002603d0       0x14 /home/chris/work/ffmpeg/refs/ffmpeg-armv7/lib/libavcodec.a(chomp_bsf.o)
                0x002603d0                ff_chomp_bsf
 .data          0x002603e4        0x0 /home/chris/work/ffmpeg/refs/ffmpeg-armv7/lib/libavcodec.a(codec_desc.o)
 .data          0x002603e4        0x0 /home/chris/work/ffmpeg/refs/ffmpeg-armv7/lib/libavcodec.a(dump_extradata_bsf.o)
 .data.rel.local
                0x002603e4       0x14 /home/chris/work/ffmpeg/refs/ffmpeg-armv7/lib/libavcodec.a(dump_extradata_bsf.o)
                0x002603e4                ff_dump_extradata_bsf
 .data          0x002603f8        0x0 /home/chris/work/ffmpeg/refs/ffmpeg-armv7/lib/libavcodec.a(h263_parser.o)
 .data.rel      0x002603f8       0x2c /home/chris/work/ffmpeg/refs/ffmpeg-armv7/lib/libavcodec.a(h263_parser.o)
                0x002603f8                ff_h263_parser
 .data          0x00260424        0x0 /home/chris/work/ffmpeg/refs/ffmpeg-armv7/lib/libavcodec.a(h263dec.o)
 .data.rel      0x00260424       0xc8 /home/chris/work/ffmpeg/refs/ffmpeg-armv7/lib/libavcodec.a(h263dec.o)
                0x00260424                ff_h263p_decoder
                0x00260488                ff_h263_decoder
 .data          0x002604ec        0x0 /home/chris/work/ffmpeg/refs/ffmpeg-armv7/lib/libavcodec.a(h264.o)
 .data.rel      0x002604ec       0x64 /home/chris/work/ffmpeg/refs/ffmpeg-armv7/lib/libavcodec.a(h264.o)
                0x002604ec                ff_h264_decoder
 .data          0x00260550        0x0 /home/chris/work/ffmpeg/refs/ffmpeg-armv7/lib/libavcodec.a(h264_cabac.o)
 .data          0x00260550        0x0 /home/chris/work/ffmpeg/refs/ffmpeg-armv7/lib/libavcodec.a(h264_cavlc.o)
 .data          0x00260550        0x0 /home/chris/work/ffmpeg/refs/ffmpeg-armv7/lib/libavcodec.a(h264_direct.o)
 .data          0x00260550        0x0 /home/chris/work/ffmpeg/refs/ffmpeg-armv7/lib/libavcodec.a(h264_loopfilter.o)
 .data          0x00260550        0x0 /home/chris/work/ffmpeg/refs/ffmpeg-armv7/lib/libavcodec.a(h264_mp4toannexb_bsf.o)
 .data.rel.local
                0x00260550       0x14 /home/chris/work/ffmpeg/refs/ffmpeg-armv7/lib/libavcodec.a(h264_mp4toannexb_bsf.o)
                0x00260550                ff_h264_mp4toannexb_bsf
 .data          0x00260564        0x0 /home/chris/work/ffmpeg/refs/ffmpeg-armv7/lib/libavcodec.a(h264_parser.o)
 .data.rel.local
                0x00260564       0x2c /home/chris/work/ffmpeg/refs/ffmpeg-armv7/lib/libavcodec.a(h264_parser.o)
                0x00260564                ff_h264_parser
 .data          0x00260590        0x0 /home/chris/work/ffmpeg/refs/ffmpeg-armv7/lib/libavcodec.a(h264_ps.o)
 .data          0x00260590        0x0 /home/chris/work/ffmpeg/refs/ffmpeg-armv7/lib/libavcodec.a(h264_refs.o)
 .data          0x00260590        0x0 /home/chris/work/ffmpeg/refs/ffmpeg-armv7/lib/libavcodec.a(h264_sei.o)
 .data          0x00260590        0x0 /home/chris/work/ffmpeg/refs/ffmpeg-armv7/lib/libavcodec.a(h264chroma.o)
 .data          0x00260590        0x0 /home/chris/work/ffmpeg/refs/ffmpeg-armv7/lib/libavcodec.a(h264dsp.o)
 .data          0x00260590        0x0 /home/chris/work/ffmpeg/refs/ffmpeg-armv7/lib/libavcodec.a(h264idct.o)
 .data          0x00260590        0x0 /home/chris/work/ffmpeg/refs/ffmpeg-armv7/lib/libavcodec.a(h264pred.o)
 .data          0x00260590        0x0 /home/chris/work/ffmpeg/refs/ffmpeg-armv7/lib/libavcodec.a(h264qpel.o)
 .data          0x00260590        0x0 /home/chris/work/ffmpeg/refs/ffmpeg-armv7/lib/libavcodec.a(imx_dump_header_bsf.o)
 .data.rel.local
                0x00260590       0x14 /home/chris/work/ffmpeg/refs/ffmpeg-armv7/lib/libavcodec.a(imx_dump_header_bsf.o)
                0x00260590                ff_imx_dump_header_bsf
 .data          0x002605a4        0x0 /home/chris/work/ffmpeg/refs/ffmpeg-armv7/lib/libavcodec.a(ituh263dec.o)
 .data          0x002605a4        0x0 /home/chris/work/ffmpeg/refs/ffmpeg-armv7/lib/libavcodec.a(mathtables.o)
 .data          0x002605a4        0x0 /home/chris/work/ffmpeg/refs/ffmpeg-armv7/lib/libavcodec.a(mjpeg2jpeg_bsf.o)
 .data.rel.local
                0x002605a4       0x14 /home/chris/work/ffmpeg/refs/ffmpeg-armv7/lib/libavcodec.a(mjpeg2jpeg_bsf.o)
                0x002605a4                ff_mjpeg2jpeg_bsf
 .data          0x002605b8        0x0 /home/chris/work/ffmpeg/refs/ffmpeg-armv7/lib/libavcodec.a(mjpega_dump_header_bsf.o)
 .data.rel.local
                0x002605b8       0x14 /home/chris/work/ffmpeg/refs/ffmpeg-armv7/lib/libavcodec.a(mjpega_dump_header_bsf.o)
                0x002605b8                ff_mjpega_dump_header_bsf
 .data          0x002605cc        0x0 /home/chris/work/ffmpeg/refs/ffmpeg-armv7/lib/libavcodec.a(movsub_bsf.o)
 .data.rel.local
                0x002605cc       0x28 /home/chris/work/ffmpeg/refs/ffmpeg-armv7/lib/libavcodec.a(movsub_bsf.o)
                0x002605cc                ff_mov2textsub_bsf
                0x002605e0                ff_text2movsub_bsf
 .data          0x002605f4        0x0 /home/chris/work/ffmpeg/refs/ffmpeg-armv7/lib/libavcodec.a(mp3_header_compress_bsf.o)
 .data.rel.local
                0x002605f4       0x14 /home/chris/work/ffmpeg/refs/ffmpeg-armv7/lib/libavcodec.a(mp3_header_compress_bsf.o)
                0x002605f4                ff_mp3_header_compress_bsf
 .data          0x00260608        0x0 /home/chris/work/ffmpeg/refs/ffmpeg-armv7/lib/libavcodec.a(mp3_header_decompress_bsf.o)
 .data.rel.local
                0x00260608       0x14 /home/chris/work/ffmpeg/refs/ffmpeg-armv7/lib/libavcodec.a(mp3_header_decompress_bsf.o)
                0x00260608                ff_mp3_header_decompress_bsf
 .data          0x0026061c        0x0 /home/chris/work/ffmpeg/refs/ffmpeg-armv7/lib/libavcodec.a(mpeg12.o)
 .data.rel.local
                0x0026061c      0x12c /home/chris/work/ffmpeg/refs/ffmpeg-armv7/lib/libavcodec.a(mpeg12.o)
                0x0026061c                ff_mpegvideo_decoder
                0x00260680                ff_mpeg2video_decoder
                0x002606e4                ff_mpeg1video_decoder
 .data          0x00260748        0x0 /home/chris/work/ffmpeg/refs/ffmpeg-armv7/lib/libavcodec.a(mpeg12data.o)
 .data.rel.local
                0x00260748      0x178 /home/chris/work/ffmpeg/refs/ffmpeg-armv7/lib/libavcodec.a(mpeg12data.o)
                0x00260748                ff_rl_mpeg2
                0x00260804                ff_rl_mpeg1
 .data          0x002608c0        0x0 /home/chris/work/ffmpeg/refs/ffmpeg-armv7/lib/libavcodec.a(mpeg4audio.o)
 .data          0x002608c0        0x0 /home/chris/work/ffmpeg/refs/ffmpeg-armv7/lib/libavcodec.a(mpeg4video.o)
 .data.rel.local
                0x002608c0      0x178 /home/chris/work/ffmpeg/refs/ffmpeg-armv7/lib/libavcodec.a(mpeg4video.o)
                0x002608c0                ff_rvlc_rl_intra
                0x0026097c                ff_rvlc_rl_inter
 .data.rel      0x00260a38       0xbc /home/chris/work/ffmpeg/refs/ffmpeg-armv7/lib/libavcodec.a(mpeg4video.o)
                0x00260a38                ff_mpeg4_rl_intra
 .data          0x00260af4        0x0 /home/chris/work/ffmpeg/refs/ffmpeg-armv7/lib/libavcodec.a(mpeg4video_parser.o)
 .data.rel      0x00260af4       0x2c /home/chris/work/ffmpeg/refs/ffmpeg-armv7/lib/libavcodec.a(mpeg4video_parser.o)
                0x00260af4                ff_mpeg4video_parser
 .data          0x00260b20        0x0 /home/chris/work/ffmpeg/refs/ffmpeg-armv7/lib/libavcodec.a(mpeg4videodec.o)
 .data.rel      0x00260b20       0x64 /home/chris/work/ffmpeg/refs/ffmpeg-armv7/lib/libavcodec.a(mpeg4videodec.o)
                0x00260b20                ff_mpeg4_decoder
 .data          0x00260b84        0x0 /home/chris/work/ffmpeg/refs/ffmpeg-armv7/lib/libavcodec.a(mpegaudiodata.o)
 .data          0x00260b84        0xc /home/chris/work/ffmpeg/refs/ffmpeg-armv7/lib/libavcodec.a(mpegaudiodec.o)
 .data.rel.local
                0x00260b90       0x64 /home/chris/work/ffmpeg/refs/ffmpeg-armv7/lib/libavcodec.a(mpegaudiodec.o)
                0x00260b90                ff_mp2_decoder
 .data          0x00260bf4        0x0 /home/chris/work/ffmpeg/refs/ffmpeg-armv7/lib/libavcodec.a(mpegaudiodecheader.o)
 .data          0x00260bf4        0x0 /home/chris/work/ffmpeg/refs/ffmpeg-armv7/lib/libavcodec.a(mpegaudiodsp.o)
 .data          0x00260bf4        0x0 /home/chris/work/ffmpeg/refs/ffmpeg-armv7/lib/libavcodec.a(mpegaudiodsp_fixed.o)
 .data          0x00260bf4        0x0 /home/chris/work/ffmpeg/refs/ffmpeg-armv7/lib/libavcodec.a(mpegaudiodsp_float.o)
 .data          0x00260bf4        0x0 /home/chris/work/ffmpeg/refs/ffmpeg-armv7/lib/libavcodec.a(mpegvideo.o)
 .data          0x00260bf4        0x0 /home/chris/work/ffmpeg/refs/ffmpeg-armv7/lib/libavcodec.a(mpegvideo_motion.o)
 .data          0x00260bf4        0x0 /home/chris/work/ffmpeg/refs/ffmpeg-armv7/lib/libavcodec.a(noise_bsf.o)
 .data.rel.local
                0x00260bf4       0x14 /home/chris/work/ffmpeg/refs/ffmpeg-armv7/lib/libavcodec.a(noise_bsf.o)
                0x00260bf4                ff_noise_bsf
 .data          0x00260c08        0x0 /home/chris/work/ffmpeg/refs/ffmpeg-armv7/lib/libavcodec.a(options.o)
 .data          0x00260c08        0x0 /home/chris/work/ffmpeg/refs/ffmpeg-armv7/lib/libavcodec.a(parser.o)
 .data          0x00260c08        0x0 /home/chris/work/ffmpeg/refs/ffmpeg-armv7/lib/libavcodec.a(raw.o)
 .data          0x00260c08        0x0 /home/chris/work/ffmpeg/refs/ffmpeg-armv7/lib/libavcodec.a(rawdec.o)
 .data.rel.local
                0x00260c08       0x64 /home/chris/work/ffmpeg/refs/ffmpeg-armv7/lib/libavcodec.a(rawdec.o)
                0x00260c08                ff_rawvideo_decoder
 .data          0x00260c6c        0x0 /home/chris/work/ffmpeg/refs/ffmpeg-armv7/lib/libavcodec.a(remove_extradata_bsf.o)
 .data.rel.local
                0x00260c6c       0x14 /home/chris/work/ffmpeg/refs/ffmpeg-armv7/lib/libavcodec.a(remove_extradata_bsf.o)
                0x00260c6c                ff_remove_extradata_bsf
 .data          0x00260c80        0x0 /home/chris/work/ffmpeg/refs/ffmpeg-armv7/lib/libavcodec.a(utils.o)
 .data          0x00260c80        0x0 /home/chris/work/ffmpeg/refs/ffmpeg-armv7/lib/libavcodec.a(videodsp.o)
 .data          0x00260c80        0x0 /home/chris/work/ffmpeg/refs/ffmpeg-armv7/lib/libavcodec.a(aac_adtstoasc_bsf.o)
 .data.rel.local
                0x00260c80       0x14 /home/chris/work/ffmpeg/refs/ffmpeg-armv7/lib/libavcodec.a(aac_adtstoasc_bsf.o)
                0x00260c80                ff_aac_adtstoasc_bsf
 .data          0x00260c94        0x0 /home/chris/work/ffmpeg/refs/ffmpeg-armv7/lib/libavcodec.a(aac_parser.o)
 .data.rel      0x00260c94       0x2c /home/chris/work/ffmpeg/refs/ffmpeg-armv7/lib/libavcodec.a(aac_parser.o)
                0x00260c94                ff_aac_parser
 .data          0x00260cc0        0x0 /home/chris/work/ffmpeg/refs/ffmpeg-armv7/lib/libavcodec.a(aacadtsdec.o)
 .data          0x00260cc0       0x10 /home/chris/work/ffmpeg/refs/ffmpeg-armv7/lib/libavcodec.a(aacdec.o)
 .data.rel.local
                0x00260cd0       0xc8 /home/chris/work/ffmpeg/refs/ffmpeg-armv7/lib/libavcodec.a(aacdec.o)
                0x00260cd0                ff_aac_latm_decoder
                0x00260d34                ff_aac_decoder
 .data          0x00260da0      0xa00 /home/chris/work/ffmpeg/refs/ffmpeg-armv7/lib/libavcodec.a(aacsbr.o)
 .data          0x002617a0        0x0 /home/chris/work/ffmpeg/refs/ffmpeg-armv7/lib/libavcodec.a(aactab.o)
 .data          0x002617a0        0x0 /home/chris/work/ffmpeg/refs/ffmpeg-armv7/lib/libavcodec.a(ac3_parser.o)
 .data.rel      0x002617a0       0x2c /home/chris/work/ffmpeg/refs/ffmpeg-armv7/lib/libavcodec.a(ac3_parser.o)
                0x002617a0                ff_ac3_parser
 .data          0x002617cc        0x8 /home/chris/work/ffmpeg/refs/ffmpeg-armv7/lib/libavcodec.a(ac3dec.o)
 .data.rel.local
                0x002617d4       0x64 /home/chris/work/ffmpeg/refs/ffmpeg-armv7/lib/libavcodec.a(ac3dec.o)
                0x002617d4                ff_ac3_decoder
 .data          0x00261838        0x0 /home/chris/work/ffmpeg/refs/ffmpeg-armv7/lib/libavcodec.a(ac3dec_data.o)
 .data          0x00261838        0x0 /home/chris/work/ffmpeg/refs/ffmpeg-armv7/lib/libavcodec.a(ac3dsp.o)
 .data          0x00261838        0x0 /home/chris/work/ffmpeg/refs/ffmpeg-armv7/lib/libavcodec.a(ac3dsp_init_arm.o)
 .data          0x00261838        0x0 /home/chris/work/ffmpeg/refs/ffmpeg-armv7/lib/libavcodec.a(ac3dsp_neon.o)
 .data          0x00261838        0x0 /home/chris/work/ffmpeg/refs/ffmpeg-armv7/lib/libavcodec.a(h264chroma_init_arm.o)
 .data          0x00261838        0x0 /home/chris/work/ffmpeg/refs/ffmpeg-armv7/lib/libavcodec.a(h264cmc_neon.o)
 .data          0x00261838        0x0 /home/chris/work/ffmpeg/refs/ffmpeg-armv7/lib/libavcodec.a(h264dsp_init_arm.o)
 .data          0x00261838        0x0 /home/chris/work/ffmpeg/refs/ffmpeg-armv7/lib/libavcodec.a(h264dsp_neon.o)
 .data          0x00261838        0x0 /home/chris/work/ffmpeg/refs/ffmpeg-armv7/lib/libavcodec.a(h264idct_neon.o)
 .data          0x00261838        0x0 /home/chris/work/ffmpeg/refs/ffmpeg-armv7/lib/libavcodec.a(h264pred_init_arm.o)
 .data          0x00261838        0x0 /home/chris/work/ffmpeg/refs/ffmpeg-armv7/lib/libavcodec.a(h264pred_neon.o)
 .data          0x00261838        0x0 /home/chris/work/ffmpeg/refs/ffmpeg-armv7/lib/libavcodec.a(h264qpel_init_arm.o)
 .data          0x00261838        0x0 /home/chris/work/ffmpeg/refs/ffmpeg-armv7/lib/libavcodec.a(h264qpel_neon.o)
 .data          0x00261838        0x0 /home/chris/work/ffmpeg/refs/ffmpeg-armv7/lib/libavcodec.a(mpegaudiodsp_init_arm.o)
 .data          0x00261838        0x0 /home/chris/work/ffmpeg/refs/ffmpeg-armv7/lib/libavcodec.a(mpegvideo_arm.o)
 .data          0x00261838        0x0 /home/chris/work/ffmpeg/refs/ffmpeg-armv7/lib/libavcodec.a(mpegvideo_armv5te.o)
 .data          0x00261838        0x0 /home/chris/work/ffmpeg/refs/ffmpeg-armv7/lib/libavcodec.a(mpegvideo_armv5te_s.o)
 .data          0x00261838        0x0 /home/chris/work/ffmpeg/refs/ffmpeg-armv7/lib/libavcodec.a(mpegvideo_neon.o)
 .data          0x00261838        0x0 /home/chris/work/ffmpeg/refs/ffmpeg-armv7/lib/libavcodec.a(videodsp_init_arm.o)
 .data          0x00261838        0x0 /home/chris/work/ffmpeg/refs/ffmpeg-armv7/lib/libavcodec.a(videodsp_init_armv5te.o)
 .data          0x00261838        0x0 /home/chris/work/ffmpeg/refs/ffmpeg-armv7/lib/libavcodec.a(bitstream.o)
 .data          0x00261838      0x540 /home/chris/work/ffmpeg/refs/ffmpeg-armv7/lib/libavcodec.a(cabac.o)
                0x00261838                ff_h264_cabac_tables
 .data          0x00261d78        0x0 /home/chris/work/ffmpeg/refs/ffmpeg-armv7/lib/libavcodec.a(dct.o)
 .data          0x00261d78        0x0 /home/chris/work/ffmpeg/refs/ffmpeg-armv7/lib/libavcodec.a(dct32_fixed.o)
 .data          0x00261d78        0x0 /home/chris/work/ffmpeg/refs/ffmpeg-armv7/lib/libavcodec.a(dct32_float.o)
 .data          0x00261d78        0x0 /home/chris/work/ffmpeg/refs/ffmpeg-armv7/lib/libavcodec.a(dsputil.o)
 .data          0x00261d78        0x0 /home/chris/work/ffmpeg/refs/ffmpeg-armv7/lib/libavcodec.a(error_resilience.o)
 .data          0x00261d78        0x0 /home/chris/work/ffmpeg/refs/ffmpeg-armv7/lib/libavcodec.a(faanidct.o)
 .data          0x00261d78        0x0 /home/chris/work/ffmpeg/refs/ffmpeg-armv7/lib/libavcodec.a(fft_float.o)
 .data          0x00261d78        0x0 /home/chris/work/ffmpeg/refs/ffmpeg-armv7/lib/libavcodec.a(fmtconvert.o)
 .data          0x00261d78        0x0 /home/chris/work/ffmpeg/refs/ffmpeg-armv7/lib/libavcodec.a(golomb.o)
 .data          0x00261d78        0x0 /home/chris/work/ffmpeg/refs/ffmpeg-armv7/lib/libavcodec.a(h263.o)
 .data.rel.local
                0x00261d78       0xbc /home/chris/work/ffmpeg/refs/ffmpeg-armv7/lib/libavcodec.a(h263.o)
                0x00261d78                ff_rl_intra_aic
 .data.rel      0x00261e34       0xbc /home/chris/work/ffmpeg/refs/ffmpeg-armv7/lib/libavcodec.a(h263.o)
                0x00261e34                ff_h263_rl_inter
 .data          0x00261ef0        0x0 /home/chris/work/ffmpeg/refs/ffmpeg-armv7/lib/libavcodec.a(imgconvert.o)
 .data          0x00261ef0        0x0 /home/chris/work/ffmpeg/refs/ffmpeg-armv7/lib/libavcodec.a(jrevdct.o)
 .data          0x00261ef0        0x0 /home/chris/work/ffmpeg/refs/ffmpeg-armv7/lib/libavcodec.a(kbdwin.o)
 .data          0x00261ef0        0x0 /home/chris/work/ffmpeg/refs/ffmpeg-armv7/lib/libavcodec.a(mdct_float.o)
 .data          0x00261ef0        0x0 /home/chris/work/ffmpeg/refs/ffmpeg-armv7/lib/libavcodec.a(mjpeg.o)
 .data          0x00261ef0        0x0 /home/chris/work/ffmpeg/refs/ffmpeg-armv7/lib/libavcodec.a(mpegaudio.o)
 .data          0x00261ef0        0x0 /home/chris/work/ffmpeg/refs/ffmpeg-armv7/lib/libavcodec.a(mpegaudiodsp_data.o)
 .data          0x00261ef0        0x0 /home/chris/work/ffmpeg/refs/ffmpeg-armv7/lib/libavcodec.a(rdft.o)
 .data          0x00261ef0        0x0 /home/chris/work/ffmpeg/refs/ffmpeg-armv7/lib/libavcodec.a(sbrdsp.o)
 .data          0x00261ef0        0x0 /home/chris/work/ffmpeg/refs/ffmpeg-armv7/lib/libavcodec.a(simple_idct.o)
 .data          0x00261ef0        0x0 /home/chris/work/ffmpeg/refs/ffmpeg-armv7/lib/libavcodec.a(sinewin.o)
 .data          0x00261ef0        0x0 /home/chris/work/ffmpeg/refs/ffmpeg-armv7/lib/libavcodec.a(aac_ac3_parser.o)
 .data          0x00261ef0        0x0 /home/chris/work/ffmpeg/refs/ffmpeg-armv7/lib/libavcodec.a(aacps.o)
 .data          0x00261ef0        0x0 /home/chris/work/ffmpeg/refs/ffmpeg-armv7/lib/libavcodec.a(aacpsdsp.o)
 .data          0x00261ef0        0x0 /home/chris/work/ffmpeg/refs/ffmpeg-armv7/lib/libavcodec.a(ac3.o)
 .data          0x00261ef0        0x0 /home/chris/work/ffmpeg/refs/ffmpeg-armv7/lib/libavcodec.a(aacpsdsp_init_arm.o)
 .data          0x00261ef0        0x0 /home/chris/work/ffmpeg/refs/ffmpeg-armv7/lib/libavcodec.a(aacpsdsp_neon.o)
 .data          0x00261ef0        0x0 /home/chris/work/ffmpeg/refs/ffmpeg-armv7/lib/libavcodec.a(ac3dsp_arm.o)
 .data          0x00261ef0        0x0 /home/chris/work/ffmpeg/refs/ffmpeg-armv7/lib/libavcodec.a(ac3dsp_armv6.o)
 .data          0x00261ef0        0x0 /home/chris/work/ffmpeg/refs/ffmpeg-armv7/lib/libavcodec.a(dsputil_init_arm.o)
 .data          0x00261ef0        0x0 /home/chris/work/ffmpeg/refs/ffmpeg-armv7/lib/libavcodec.a(dsputil_init_armv5te.o)
 .data          0x00261ef0        0x0 /home/chris/work/ffmpeg/refs/ffmpeg-armv7/lib/libavcodec.a(dsputil_init_armv6.o)
 .data          0x00261ef0        0x0 /home/chris/work/ffmpeg/refs/ffmpeg-armv7/lib/libavcodec.a(dsputil_init_neon.o)
 .data          0x00261ef0        0x0 /home/chris/work/ffmpeg/refs/ffmpeg-armv7/lib/libavcodec.a(dsputil_neon.o)
 .data          0x00261ef0        0x0 /home/chris/work/ffmpeg/refs/ffmpeg-armv7/lib/libavcodec.a(fft_init_arm.o)
 .data          0x00261ef0        0x0 /home/chris/work/ffmpeg/refs/ffmpeg-armv7/lib/libavcodec.a(fft_neon.o)
 .data          0x00261ef0        0x0 /home/chris/work/ffmpeg/refs/ffmpeg-armv7/lib/libavcodec.a(fmtconvert_init_arm.o)
 .data          0x00261ef0        0x0 /home/chris/work/ffmpeg/refs/ffmpeg-armv7/lib/libavcodec.a(fmtconvert_neon.o)
 .data          0x00261ef0        0x0 /home/chris/work/ffmpeg/refs/ffmpeg-armv7/lib/libavcodec.a(fmtconvert_vfp.o)
 .data          0x00261ef0        0x0 /home/chris/work/ffmpeg/refs/ffmpeg-armv7/lib/libavcodec.a(int_neon.o)
 .data          0x00261ef0        0x0 /home/chris/work/ffmpeg/refs/ffmpeg-armv7/lib/libavcodec.a(jrevdct_arm.o)
 .data          0x00261ef0        0x0 /home/chris/work/ffmpeg/refs/ffmpeg-armv7/lib/libavcodec.a(mdct_neon.o)
 .data          0x00261ef0        0x0 /home/chris/work/ffmpeg/refs/ffmpeg-armv7/lib/libavcodec.a(mpegaudiodsp_fixed_armv6.o)
 .data          0x00261ef0        0x0 /home/chris/work/ffmpeg/refs/ffmpeg-armv7/lib/libavcodec.a(rdft_neon.o)
 .data          0x00261ef0        0x0 /home/chris/work/ffmpeg/refs/ffmpeg-armv7/lib/libavcodec.a(sbrdsp_init_arm.o)
 .data          0x00261ef0        0x0 /home/chris/work/ffmpeg/refs/ffmpeg-armv7/lib/libavcodec.a(sbrdsp_neon.o)
 .data          0x00261ef0        0x0 /home/chris/work/ffmpeg/refs/ffmpeg-armv7/lib/libavcodec.a(simple_idct_arm.o)
 .data          0x00261ef0        0x0 /home/chris/work/ffmpeg/refs/ffmpeg-armv7/lib/libavcodec.a(simple_idct_armv5te.o)
 .data          0x00261ef0        0x0 /home/chris/work/ffmpeg/refs/ffmpeg-armv7/lib/libavcodec.a(simple_idct_armv6.o)
 .data          0x00261ef0        0x0 /home/chris/work/ffmpeg/refs/ffmpeg-armv7/lib/libavcodec.a(simple_idct_neon.o)
 .data          0x00261ef0        0x0 /home/chris/work/ffmpeg/refs/ffmpeg-armv7/lib/libavcodec.a(videodsp_armv5te.o)
 .data          0x00261ef0        0x0 /home/chris/work/ffmpeg/refs/ffmpeg-armv7/lib/libavcodec.a(dsputil_arm.o)
 .data          0x00261ef0        0x0 /home/chris/work/ffmpeg/refs/ffmpeg-armv7/lib/libavcodec.a(dsputil_armv6.o)
 .data          0x00261ef0        0x0 /home/chris/work/ffmpeg/refs/ffmpeg-armv7/lib/libswscale.a(swscale.o)
 .data          0x00261ef0        0x0 /home/chris/work/ffmpeg/refs/ffmpeg-armv7/lib/libswscale.a(utils.o)
 .data          0x00261ef0        0x0 /home/chris/work/ffmpeg/refs/ffmpeg-armv7/lib/libswscale.a(yuv2rgb.o)
 .data          0x00261ef0        0x0 /home/chris/work/ffmpeg/refs/ffmpeg-armv7/lib/libswscale.a(input.o)
 .data          0x00261ef0        0x0 /home/chris/work/ffmpeg/refs/ffmpeg-armv7/lib/libswscale.a(options.o)
 .data          0x00261ef0        0x0 /home/chris/work/ffmpeg/refs/ffmpeg-armv7/lib/libswscale.a(output.o)
 .data          0x00261ef0        0x0 /home/chris/work/ffmpeg/refs/ffmpeg-armv7/lib/libswscale.a(rgb2rgb.o)
 .data          0x00261ef0        0x0 /home/chris/work/ffmpeg/refs/ffmpeg-armv7/lib/libswscale.a(swscale_unscaled.o)
 .data          0x00261ef0        0x0 /home/chris/work/ffmpeg/refs/ffmpeg-armv7/lib/libswresample.a(swresample.o)
 .data          0x00261ef0        0x0 /home/chris/work/ffmpeg/refs/ffmpeg-armv7/lib/libswresample.a(audioconvert.o)
 .data          0x00261ef0        0x0 /home/chris/work/ffmpeg/refs/ffmpeg-armv7/lib/libswresample.a(dither.o)
 .data          0x00261ef0        0x0 /home/chris/work/ffmpeg/refs/ffmpeg-armv7/lib/libswresample.a(rematrix.o)
 .data          0x00261ef0        0x0 /home/chris/work/ffmpeg/refs/ffmpeg-armv7/lib/libswresample.a(resample.o)
 .data          0x00261ef0        0x0 /home/chris/work/ffmpeg/refs/ffmpeg-armv7/lib/libswresample.a(audio_convert_init.o)
 .data          0x00261ef0        0x0 /home/chris/work/ffmpeg/refs/ffmpeg-armv7/lib/libswresample.a(audio_convert_neon.o)
 .data          0x00261ef0        0x0 /home/chris/work/ffmpeg/refs/ffmpeg-armv7/lib/libavutil.a(avstring.o)
 .data          0x00261ef0        0x0 /home/chris/work/ffmpeg/refs/ffmpeg-armv7/lib/libavutil.a(base64.o)
 .data          0x00261ef0        0x0 /home/chris/work/ffmpeg/refs/ffmpeg-armv7/lib/libavutil.a(bprint.o)
 .data          0x00261ef0        0x0 /home/chris/work/ffmpeg/refs/ffmpeg-armv7/lib/libavutil.a(channel_layout.o)
 .data          0x00261ef0        0x0 /home/chris/work/ffmpeg/refs/ffmpeg-armv7/lib/libavutil.a(cpu.o)
 .data          0x00261ef0        0x0 /home/chris/work/ffmpeg/refs/ffmpeg-armv7/lib/libavutil.a(crc.o)
 .data          0x00261ef0        0x0 /home/chris/work/ffmpeg/refs/ffmpeg-armv7/lib/libavutil.a(dict.o)
 .data          0x00261ef0        0x0 /home/chris/work/ffmpeg/refs/ffmpeg-armv7/lib/libavutil.a(error.o)
 .data          0x00261ef0        0x0 /home/chris/work/ffmpeg/refs/ffmpeg-armv7/lib/libavutil.a(float_dsp.o)
 .data          0x00261ef0        0x0 /home/chris/work/ffmpeg/refs/ffmpeg-armv7/lib/libavutil.a(imgutils.o)
 .data          0x00261ef0        0x0 /home/chris/work/ffmpeg/refs/ffmpeg-armv7/lib/libavutil.a(lfg.o)
 .data          0x00261ef0        0xc /home/chris/work/ffmpeg/refs/ffmpeg-armv7/lib/libavutil.a(log.o)
 .data.rel      0x00261efc        0x4 /home/chris/work/ffmpeg/refs/ffmpeg-armv7/lib/libavutil.a(log.o)
 .data          0x00261f00        0x0 /home/chris/work/ffmpeg/refs/ffmpeg-armv7/lib/libavutil.a(log2_tab.o)
 .data          0x00261f00        0x0 /home/chris/work/ffmpeg/refs/ffmpeg-armv7/lib/libavutil.a(mathematics.o)
 .data          0x00261f00        0x0 /home/chris/work/ffmpeg/refs/ffmpeg-armv7/lib/libavutil.a(md5.o)
 .data          0x00261f00        0x4 /home/chris/work/ffmpeg/refs/ffmpeg-armv7/lib/libavutil.a(mem.o)
 .data          0x00261f04        0x0 /home/chris/work/ffmpeg/refs/ffmpeg-armv7/lib/libavutil.a(opt.o)
 .data          0x00261f04        0x0 /home/chris/work/ffmpeg/refs/ffmpeg-armv7/lib/libavutil.a(parseutils.o)
 .data          0x00261f04        0x0 /home/chris/work/ffmpeg/refs/ffmpeg-armv7/lib/libavutil.a(pixdesc.o)
 .data          0x00261f04        0x0 /home/chris/work/ffmpeg/refs/ffmpeg-armv7/lib/libavutil.a(random_seed.o)
 .data          0x00261f04        0x0 /home/chris/work/ffmpeg/refs/ffmpeg-armv7/lib/libavutil.a(rational.o)
 .data          0x00261f04        0x0 /home/chris/work/ffmpeg/refs/ffmpeg-armv7/lib/libavutil.a(samplefmt.o)
 .data          0x00261f04        0x0 /home/chris/work/ffmpeg/refs/ffmpeg-armv7/lib/libavutil.a(sha.o)
 .data          0x00261f04        0x0 /home/chris/work/ffmpeg/refs/ffmpeg-armv7/lib/libavutil.a(time.o)
 .data          0x00261f04        0x0 /home/chris/work/ffmpeg/refs/ffmpeg-armv7/lib/libavutil.a(timecode.o)
 .data          0x00261f04        0x0 /home/chris/work/ffmpeg/refs/ffmpeg-armv7/lib/libavutil.a(utils.o)
 .data          0x00261f04        0x0 /home/chris/work/ffmpeg/refs/ffmpeg-armv7/lib/libavutil.a(cpu.o)
 .data          0x00261f04        0x0 /home/chris/work/ffmpeg/refs/ffmpeg-armv7/lib/libavutil.a(float_dsp_init_arm.o)
 .data          0x00261f04        0x0 /home/chris/work/ffmpeg/refs/ffmpeg-armv7/lib/libavutil.a(float_dsp_init_neon.o)
 .data          0x00261f04        0x0 /home/chris/work/ffmpeg/refs/ffmpeg-armv7/lib/libavutil.a(float_dsp_init_vfp.o)
 .data          0x00261f04        0x0 /home/chris/work/ffmpeg/refs/ffmpeg-armv7/lib/libavutil.a(float_dsp_neon.o)
 .data          0x00261f04        0x0 /home/chris/work/ffmpeg/refs/ffmpeg-armv7/lib/libavutil.a(float_dsp_vfp.o)
 .data          0x00261f04        0x0 /home/chris/work/ffmpeg/refs/ffmpeg-armv7/lib/libavutil.a(eval.o)
 .data          0x00261f04        0x0 /home/chris/work/android/android-ndk-r8d/toolchains/arm-linux-androideabi-4.6/prebuilt/linux-x86/bin/../lib/gcc/arm-linux-androideabi/4.6/libgcc.a(_udivsi3.o)
 .data          0x00261f04        0x0 /home/chris/work/android/android-ndk-r8d/toolchains/arm-linux-androideabi-4.6/prebuilt/linux-x86/bin/../lib/gcc/arm-linux-androideabi/4.6/libgcc.a(_divsi3.o)
 .data          0x00261f04        0x0 /home/chris/work/android/android-ndk-r8d/toolchains/arm-linux-androideabi-4.6/prebuilt/linux-x86/bin/../lib/gcc/arm-linux-androideabi/4.6/libgcc.a(_lshrdi3.o)
 .data          0x00261f04        0x0 /home/chris/work/android/android-ndk-r8d/toolchains/arm-linux-androideabi-4.6/prebuilt/linux-x86/bin/../lib/gcc/arm-linux-androideabi/4.6/libgcc.a(_ashldi3.o)
 .data          0x00261f04        0x0 /home/chris/work/android/android-ndk-r8d/toolchains/arm-linux-androideabi-4.6/prebuilt/linux-x86/bin/../lib/gcc/arm-linux-androideabi/4.6/libgcc.a(_arm_addsubdf3.o)
 .data          0x00261f04        0x0 /home/chris/work/android/android-ndk-r8d/toolchains/arm-linux-androideabi-4.6/prebuilt/linux-x86/bin/../lib/gcc/arm-linux-androideabi/4.6/libgcc.a(_arm_muldivdf3.o)
 .data          0x00261f04        0x0 /home/chris/work/android/android-ndk-r8d/toolchains/arm-linux-androideabi-4.6/prebuilt/linux-x86/bin/../lib/gcc/arm-linux-androideabi/4.6/libgcc.a(_arm_cmpdf2.o)
 .data          0x00261f04        0x0 /home/chris/work/android/android-ndk-r8d/toolchains/arm-linux-androideabi-4.6/prebuilt/linux-x86/bin/../lib/gcc/arm-linux-androideabi/4.6/libgcc.a(_arm_fixunsdfsi.o)
 .data          0x00261f04        0x0 /home/chris/work/android/android-ndk-r8d/toolchains/arm-linux-androideabi-4.6/prebuilt/linux-x86/bin/../lib/gcc/arm-linux-androideabi/4.6/libgcc.a(_arm_addsubsf3.o)
 .data          0x00261f04        0x0 /home/chris/work/android/android-ndk-r8d/toolchains/arm-linux-androideabi-4.6/prebuilt/linux-x86/bin/../lib/gcc/arm-linux-androideabi/4.6/libgcc.a(_aeabi_ldivmod.o)
 .data          0x00261f04        0x0 /home/chris/work/android/android-ndk-r8d/toolchains/arm-linux-androideabi-4.6/prebuilt/linux-x86/bin/../lib/gcc/arm-linux-androideabi/4.6/libgcc.a(_aeabi_uldivmod.o)
 .data          0x00261f04        0x0 /home/chris/work/android/android-ndk-r8d/toolchains/arm-linux-androideabi-4.6/prebuilt/linux-x86/bin/../lib/gcc/arm-linux-androideabi/4.6/libgcc.a(_dvmd_lnx.o)
 .data          0x00261f04        0x0 /home/chris/work/android/android-ndk-r8d/toolchains/arm-linux-androideabi-4.6/prebuilt/linux-x86/bin/../lib/gcc/arm-linux-androideabi/4.6/libgcc.a(_fixdfdi.o)
 .data          0x00261f04        0x0 /home/chris/work/android/android-ndk-r8d/toolchains/arm-linux-androideabi-4.6/prebuilt/linux-x86/bin/../lib/gcc/arm-linux-androideabi/4.6/libgcc.a(_fixunsdfdi.o)
 .data          0x00261f04        0x0 /home/chris/work/android/android-ndk-r8d/toolchains/arm-linux-androideabi-4.6/prebuilt/linux-x86/bin/../lib/gcc/arm-linux-androideabi/4.6/libgcc.a(bpabi.o)
 .data          0x00261f04        0x0 /home/chris/work/android/android-ndk-r8d/toolchains/arm-linux-androideabi-4.6/prebuilt/linux-x86/bin/../lib/gcc/arm-linux-androideabi/4.6/libgcc.a(unwind-arm.o)
 .data          0x00261f04        0x0 /home/chris/work/android/android-ndk-r8d/toolchains/arm-linux-androideabi-4.6/prebuilt/linux-x86/bin/../lib/gcc/arm-linux-androideabi/4.6/libgcc.a(libunwind.o)
 .data          0x00261f04        0x0 /home/chris/work/android/android-ndk-r8d/toolchains/arm-linux-androideabi-4.6/prebuilt/linux-x86/bin/../lib/gcc/arm-linux-androideabi/4.6/libgcc.a(pr-support.o)
 .data          0x00261f04        0x0 /home/chris/work/android/android-ndk-r8d/toolchains/arm-linux-androideabi-4.6/prebuilt/linux-x86/bin/../lib/gcc/arm-linux-androideabi/4.6/libgcc.a(_divdi3.o)
 .data          0x00261f04        0x0 /home/chris/work/android/android-ndk-r8d/toolchains/arm-linux-androideabi-4.6/prebuilt/linux-x86/bin/../lib/gcc/arm-linux-androideabi/4.6/libgcc.a(_udivdi3.o)
 .data          0x00261f04        0x0 /home/chris/work/android/android-ndk-r8d/platforms/android-14/arch-arm/usr/lib/crtend_so.o

.bss            0x00261f20   0x1d2d00
 .bss           0x00261f20        0x0 /home/chris/work/android/android-ndk-r8d/platforms/android-14/arch-arm/usr/lib/crtbegin_so.o
 .bss           0x00261f20        0x0 ./obj/local/armeabi/objs/xplayer/com_chris_yanlong_XPlayer.o
 .bss           0x00261f20        0x0 ./obj/local/armeabi/objs/xplayer/packet_queue.o
 .bss           0x00261f20       0x50 ./obj/local/armeabi/objs/xplayer/decode_audio.o
 .bss           0x00261f70        0xc ./obj/local/armeabi/objs/xplayer/opensl_audio_play.o
 .bss           0x00261f80       0x48 ./obj/local/armeabi/objs/xplayer/decode_video.o
 .bss           0x00261fc8       0x38 ./obj/local/armeabi/objs/xplayer/opengl_video_play.o
                0x00261ffc                s_w
                0x00261ff8                s_h
                0x00261ff4                display_width
                0x00261ff0                display_height
 .bss           0x00262000        0x0 ./obj/local/armeabi/objs/xplayer/picture_queue.o
 .bss           0x00262000        0x0 ./obj/local/armeabi/objs/xplayer/xplayer.o
 .bss           0x00262000        0x4 /home/chris/work/ffmpeg/refs/ffmpeg-armv7/lib/libavformat.a(allformats.o)
 .bss           0x00262004        0x4 /home/chris/work/ffmpeg/refs/ffmpeg-armv7/lib/libavformat.a(avio.o)
 .bss           0x00262008        0x0 /home/chris/work/ffmpeg/refs/ffmpeg-armv7/lib/libavformat.a(file.o)
 .bss           0x00262008        0x0 /home/chris/work/ffmpeg/refs/ffmpeg-armv7/lib/libavformat.a(flvdec.o)
 .bss           0x00262008        0x0 /home/chris/work/ffmpeg/refs/ffmpeg-armv7/lib/libavformat.a(hls.o)
 .bss           0x00262008        0x0 /home/chris/work/ffmpeg/refs/ffmpeg-armv7/lib/libavformat.a(hlsproto.o)
 .bss           0x00262008        0x0 /home/chris/work/ffmpeg/refs/ffmpeg-armv7/lib/libavformat.a(http.o)
 .bss           0x00262008        0x0 /home/chris/work/ffmpeg/refs/ffmpeg-armv7/lib/libavformat.a(httpauth.o)
 .bss           0x00262008        0x0 /home/chris/work/ffmpeg/refs/ffmpeg-armv7/lib/libavformat.a(mov.o)
 .bss           0x00262008        0x0 /home/chris/work/ffmpeg/refs/ffmpeg-armv7/lib/libavformat.a(mov_chan.o)
 .bss           0x00262008        0x0 /home/chris/work/ffmpeg/refs/ffmpeg-armv7/lib/libavformat.a(mpeg.o)
 .bss           0x00262008        0x0 /home/chris/work/ffmpeg/refs/ffmpeg-armv7/lib/libavformat.a(mpegts.o)
 .bss           0x00262008        0x0 /home/chris/work/ffmpeg/refs/ffmpeg-armv7/lib/libavformat.a(mpegvideodec.o)
 .bss           0x00262008        0x0 /home/chris/work/ffmpeg/refs/ffmpeg-armv7/lib/libavformat.a(network.o)
 .bss           0x00262008        0x0 /home/chris/work/ffmpeg/refs/ffmpeg-armv7/lib/libavformat.a(options.o)
 .bss           0x00262008        0x0 /home/chris/work/ffmpeg/refs/ffmpeg-armv7/lib/libavformat.a(rawdec.o)
 .bss           0x00262008        0x0 /home/chris/work/ffmpeg/refs/ffmpeg-armv7/lib/libavformat.a(riff.o)
 .bss           0x00262008        0x0 /home/chris/work/ffmpeg/refs/ffmpeg-armv7/lib/libavformat.a(tcp.o)
 .bss           0x00262008        0x0 /home/chris/work/ffmpeg/refs/ffmpeg-armv7/lib/libavformat.a(urldecode.o)
 .bss           0x00262008       0x28 /home/chris/work/ffmpeg/refs/ffmpeg-armv7/lib/libavformat.a(utils.o)
 .bss           0x00262030        0x0 /home/chris/work/ffmpeg/refs/ffmpeg-armv7/lib/libavformat.a(aviobuf.o)
 .bss           0x00262030        0x0 /home/chris/work/ffmpeg/refs/ffmpeg-armv7/lib/libavformat.a(id3v1.o)
 .bss           0x00262030        0x0 /home/chris/work/ffmpeg/refs/ffmpeg-armv7/lib/libavformat.a(id3v2.o)
 .bss           0x00262030        0x0 /home/chris/work/ffmpeg/refs/ffmpeg-armv7/lib/libavformat.a(isom.o)
 .bss           0x00262030        0x0 /home/chris/work/ffmpeg/refs/ffmpeg-armv7/lib/libavformat.a(metadata.o)
 .bss           0x00262030        0x4 /home/chris/work/ffmpeg/refs/ffmpeg-armv7/lib/libavformat.a(mux.o)
 .bss           0x00262034        0x0 /home/chris/work/ffmpeg/refs/ffmpeg-armv7/lib/libavformat.a(os_support.o)
 .bss           0x00262034        0x0 /home/chris/work/ffmpeg/refs/ffmpeg-armv7/lib/libavcodec.a(ac3tab.o)
 .bss           0x00262034        0x4 /home/chris/work/ffmpeg/refs/ffmpeg-armv7/lib/libavcodec.a(allcodecs.o)
 .bss           0x00262038        0x0 /home/chris/work/ffmpeg/refs/ffmpeg-armv7/lib/libavcodec.a(avpacket.o)
 .bss           0x00262038        0x0 /home/chris/work/ffmpeg/refs/ffmpeg-armv7/lib/libavcodec.a(avpicture.o)
 .bss           0x00262038        0x4 /home/chris/work/ffmpeg/refs/ffmpeg-armv7/lib/libavcodec.a(bitstream_filter.o)
 .bss           0x0026203c        0x0 /home/chris/work/ffmpeg/refs/ffmpeg-armv7/lib/libavcodec.a(chomp_bsf.o)
 .bss           0x0026203c        0x0 /home/chris/work/ffmpeg/refs/ffmpeg-armv7/lib/libavcodec.a(codec_desc.o)
 .bss           0x0026203c        0x0 /home/chris/work/ffmpeg/refs/ffmpeg-armv7/lib/libavcodec.a(dump_extradata_bsf.o)
 .bss           0x0026203c        0x0 /home/chris/work/ffmpeg/refs/ffmpeg-armv7/lib/libavcodec.a(h263_parser.o)
 .bss           0x0026203c        0x0 /home/chris/work/ffmpeg/refs/ffmpeg-armv7/lib/libavcodec.a(h263dec.o)
 .bss           0x0026203c        0x0 /home/chris/work/ffmpeg/refs/ffmpeg-armv7/lib/libavcodec.a(h264.o)
 .bss           0x0026203c        0x0 /home/chris/work/ffmpeg/refs/ffmpeg-armv7/lib/libavcodec.a(h264_cabac.o)
 .bss           0x0026203c    0x12834 /home/chris/work/ffmpeg/refs/ffmpeg-armv7/lib/libavcodec.a(h264_cavlc.o)
 .bss           0x00274870        0x0 /home/chris/work/ffmpeg/refs/ffmpeg-armv7/lib/libavcodec.a(h264_direct.o)
 .bss           0x00274870        0x0 /home/chris/work/ffmpeg/refs/ffmpeg-armv7/lib/libavcodec.a(h264_loopfilter.o)
 .bss           0x00274870        0x0 /home/chris/work/ffmpeg/refs/ffmpeg-armv7/lib/libavcodec.a(h264_mp4toannexb_bsf.o)
 .bss           0x00274870        0x0 /home/chris/work/ffmpeg/refs/ffmpeg-armv7/lib/libavcodec.a(h264_parser.o)
 .bss           0x00274870        0x0 /home/chris/work/ffmpeg/refs/ffmpeg-armv7/lib/libavcodec.a(h264_ps.o)
 .bss           0x00274870        0x0 /home/chris/work/ffmpeg/refs/ffmpeg-armv7/lib/libavcodec.a(h264_refs.o)
 .bss           0x00274870        0x0 /home/chris/work/ffmpeg/refs/ffmpeg-armv7/lib/libavcodec.a(h264_sei.o)
 .bss           0x00274870        0x0 /home/chris/work/ffmpeg/refs/ffmpeg-armv7/lib/libavcodec.a(h264chroma.o)
 .bss           0x00274870        0x0 /home/chris/work/ffmpeg/refs/ffmpeg-armv7/lib/libavcodec.a(h264dsp.o)
 .bss           0x00274870        0x0 /home/chris/work/ffmpeg/refs/ffmpeg-armv7/lib/libavcodec.a(h264idct.o)
 .bss           0x00274870        0x0 /home/chris/work/ffmpeg/refs/ffmpeg-armv7/lib/libavcodec.a(h264pred.o)
 .bss           0x00274870        0x0 /home/chris/work/ffmpeg/refs/ffmpeg-armv7/lib/libavcodec.a(h264qpel.o)
 .bss           0x00274870        0x0 /home/chris/work/ffmpeg/refs/ffmpeg-armv7/lib/libavcodec.a(imx_dump_header_bsf.o)
 .bss           0x00274870    0x24a84 /home/chris/work/ffmpeg/refs/ffmpeg-armv7/lib/libavcodec.a(ituh263dec.o)
 .bss           0x002992f4        0x0 /home/chris/work/ffmpeg/refs/ffmpeg-armv7/lib/libavcodec.a(mathtables.o)
 .bss           0x002992f4        0x0 /home/chris/work/ffmpeg/refs/ffmpeg-armv7/lib/libavcodec.a(mjpeg2jpeg_bsf.o)
 .bss           0x002992f4        0x0 /home/chris/work/ffmpeg/refs/ffmpeg-armv7/lib/libavcodec.a(mjpega_dump_header_bsf.o)
 .bss           0x002992f4        0x0 /home/chris/work/ffmpeg/refs/ffmpeg-armv7/lib/libavcodec.a(movsub_bsf.o)
 .bss           0x002992f4        0x0 /home/chris/work/ffmpeg/refs/ffmpeg-armv7/lib/libavcodec.a(mp3_header_compress_bsf.o)
 .bss           0x002992f4        0x0 /home/chris/work/ffmpeg/refs/ffmpeg-armv7/lib/libavcodec.a(mp3_header_decompress_bsf.o)
 .bss           0x002992f4     0x552c /home/chris/work/ffmpeg/refs/ffmpeg-armv7/lib/libavcodec.a(mpeg12.o)
 .bss           0x0029e820        0x0 /home/chris/work/ffmpeg/refs/ffmpeg-armv7/lib/libavcodec.a(mpeg12data.o)
 .bss           0x0029e820        0x0 /home/chris/work/ffmpeg/refs/ffmpeg-armv7/lib/libavcodec.a(mpeg4audio.o)
 .bss           0x0029e820        0x0 /home/chris/work/ffmpeg/refs/ffmpeg-armv7/lib/libavcodec.a(mpeg4video.o)
 .bss           0x0029e820        0x0 /home/chris/work/ffmpeg/refs/ffmpeg-armv7/lib/libavcodec.a(mpeg4video_parser.o)
 .bss           0x0029e820    0x581ac /home/chris/work/ffmpeg/refs/ffmpeg-armv7/lib/libavcodec.a(mpeg4videodec.o)
 .bss           0x002f69cc        0x0 /home/chris/work/ffmpeg/refs/ffmpeg-armv7/lib/libavcodec.a(mpegaudiodata.o)
 .bss           0x002f69cc    0x3e66c /home/chris/work/ffmpeg/refs/ffmpeg-armv7/lib/libavcodec.a(mpegaudiodec.o)
 .bss           0x00335038        0x0 /home/chris/work/ffmpeg/refs/ffmpeg-armv7/lib/libavcodec.a(mpegaudiodecheader.o)
 .bss           0x00335038        0x0 /home/chris/work/ffmpeg/refs/ffmpeg-armv7/lib/libavcodec.a(mpegaudiodsp.o)
 .bss           0x00335038        0x0 /home/chris/work/ffmpeg/refs/ffmpeg-armv7/lib/libavcodec.a(mpegaudiodsp_fixed.o)
 .bss           0x00335038        0x0 /home/chris/work/ffmpeg/refs/ffmpeg-armv7/lib/libavcodec.a(mpegaudiodsp_float.o)
 .bss           0x00335038        0x0 /home/chris/work/ffmpeg/refs/ffmpeg-armv7/lib/libavcodec.a(mpegvideo.o)
 .bss           0x00335038        0x0 /home/chris/work/ffmpeg/refs/ffmpeg-armv7/lib/libavcodec.a(mpegvideo_motion.o)
 .bss           0x00335038        0x0 /home/chris/work/ffmpeg/refs/ffmpeg-armv7/lib/libavcodec.a(noise_bsf.o)
 .bss           0x00335038        0x0 /home/chris/work/ffmpeg/refs/ffmpeg-armv7/lib/libavcodec.a(options.o)
 .bss           0x00335038        0x4 /home/chris/work/ffmpeg/refs/ffmpeg-armv7/lib/libavcodec.a(parser.o)
 .bss           0x0033503c        0x0 /home/chris/work/ffmpeg/refs/ffmpeg-armv7/lib/libavcodec.a(raw.o)
 .bss           0x0033503c        0x0 /home/chris/work/ffmpeg/refs/ffmpeg-armv7/lib/libavcodec.a(rawdec.o)
 .bss           0x0033503c        0x0 /home/chris/work/ffmpeg/refs/ffmpeg-armv7/lib/libavcodec.a(remove_extradata_bsf.o)
 .bss           0x0033503c       0x1c /home/chris/work/ffmpeg/refs/ffmpeg-armv7/lib/libavcodec.a(utils.o)
 .bss           0x00335058        0x0 /home/chris/work/ffmpeg/refs/ffmpeg-armv7/lib/libavcodec.a(videodsp.o)
 .bss           0x00335058        0x0 /home/chris/work/ffmpeg/refs/ffmpeg-armv7/lib/libavcodec.a(aac_adtstoasc_bsf.o)
 .bss           0x00335058        0x0 /home/chris/work/ffmpeg/refs/ffmpeg-armv7/lib/libavcodec.a(aac_parser.o)
 .bss           0x00335058        0x0 /home/chris/work/ffmpeg/refs/ffmpeg-armv7/lib/libavcodec.a(aacadtsdec.o)
 .bss           0x00335058     0xc418 /home/chris/work/ffmpeg/refs/ffmpeg-armv7/lib/libavcodec.a(aacdec.o)
 .bss           0x00341480     0x8720 /home/chris/work/ffmpeg/refs/ffmpeg-armv7/lib/libavcodec.a(aacsbr.o)
 .bss           0x00349ba0        0x0 /home/chris/work/ffmpeg/refs/ffmpeg-armv7/lib/libavcodec.a(aactab.o)
 .bss           0x00349ba0        0x0 /home/chris/work/ffmpeg/refs/ffmpeg-armv7/lib/libavcodec.a(ac3_parser.o)
 .bss           0x00349ba0     0x1160 /home/chris/work/ffmpeg/refs/ffmpeg-armv7/lib/libavcodec.a(ac3dec.o)
 .bss           0x0034ad00        0x0 /home/chris/work/ffmpeg/refs/ffmpeg-armv7/lib/libavcodec.a(ac3dec_data.o)
 .bss           0x0034ad00        0x0 /home/chris/work/ffmpeg/refs/ffmpeg-armv7/lib/libavcodec.a(ac3dsp.o)
 .bss           0x0034ad00        0x0 /home/chris/work/ffmpeg/refs/ffmpeg-armv7/lib/libavcodec.a(ac3dsp_init_arm.o)
 .bss           0x0034ad00        0x0 /home/chris/work/ffmpeg/refs/ffmpeg-armv7/lib/libavcodec.a(ac3dsp_neon.o)
 .bss           0x0034ad00        0x0 /home/chris/work/ffmpeg/refs/ffmpeg-armv7/lib/libavcodec.a(h264chroma_init_arm.o)
 .bss           0x0034ad00        0x0 /home/chris/work/ffmpeg/refs/ffmpeg-armv7/lib/libavcodec.a(h264cmc_neon.o)
 .bss           0x0034ad00        0x0 /home/chris/work/ffmpeg/refs/ffmpeg-armv7/lib/libavcodec.a(h264dsp_init_arm.o)
 .bss           0x0034ad00        0x0 /home/chris/work/ffmpeg/refs/ffmpeg-armv7/lib/libavcodec.a(h264dsp_neon.o)
 .bss           0x0034ad00        0x0 /home/chris/work/ffmpeg/refs/ffmpeg-armv7/lib/libavcodec.a(h264idct_neon.o)
 .bss           0x0034ad00        0x0 /home/chris/work/ffmpeg/refs/ffmpeg-armv7/lib/libavcodec.a(h264pred_init_arm.o)
 .bss           0x0034ad00        0x0 /home/chris/work/ffmpeg/refs/ffmpeg-armv7/lib/libavcodec.a(h264pred_neon.o)
 .bss           0x0034ad00        0x0 /home/chris/work/ffmpeg/refs/ffmpeg-armv7/lib/libavcodec.a(h264qpel_init_arm.o)
 .bss           0x0034ad00        0x0 /home/chris/work/ffmpeg/refs/ffmpeg-armv7/lib/libavcodec.a(h264qpel_neon.o)
 .bss           0x0034ad00        0x0 /home/chris/work/ffmpeg/refs/ffmpeg-armv7/lib/libavcodec.a(mpegaudiodsp_init_arm.o)
 .bss           0x0034ad00        0x0 /home/chris/work/ffmpeg/refs/ffmpeg-armv7/lib/libavcodec.a(mpegvideo_arm.o)
 .bss           0x0034ad00        0x0 /home/chris/work/ffmpeg/refs/ffmpeg-armv7/lib/libavcodec.a(mpegvideo_armv5te.o)
 .bss           0x0034ad00        0x0 /home/chris/work/ffmpeg/refs/ffmpeg-armv7/lib/libavcodec.a(mpegvideo_armv5te_s.o)
 .bss           0x0034ad00        0x0 /home/chris/work/ffmpeg/refs/ffmpeg-armv7/lib/libavcodec.a(mpegvideo_neon.o)
 .bss           0x0034ad00        0x0 /home/chris/work/ffmpeg/refs/ffmpeg-armv7/lib/libavcodec.a(videodsp_init_arm.o)
 .bss           0x0034ad00        0x0 /home/chris/work/ffmpeg/refs/ffmpeg-armv7/lib/libavcodec.a(videodsp_init_armv5te.o)
 .bss           0x0034ad00        0x0 /home/chris/work/ffmpeg/refs/ffmpeg-armv7/lib/libavcodec.a(bitstream.o)
 .bss           0x0034ad00      0x100 /home/chris/work/ffmpeg/refs/ffmpeg-armv7/lib/libavcodec.a(cabac.o)
 .bss           0x0034ae00        0x0 /home/chris/work/ffmpeg/refs/ffmpeg-armv7/lib/libavcodec.a(dct.o)
 .bss           0x0034ae00        0x0 /home/chris/work/ffmpeg/refs/ffmpeg-armv7/lib/libavcodec.a(dct32_fixed.o)
 .bss           0x0034ae00        0x0 /home/chris/work/ffmpeg/refs/ffmpeg-armv7/lib/libavcodec.a(dct32_float.o)
 .bss           0x0034ae00      0x800 /home/chris/work/ffmpeg/refs/ffmpeg-armv7/lib/libavcodec.a(dsputil.o)
                0x0034ae00                ff_squareTbl
 .bss           0x0034b600        0x0 /home/chris/work/ffmpeg/refs/ffmpeg-armv7/lib/libavcodec.a(error_resilience.o)
 .bss           0x0034b600        0x0 /home/chris/work/ffmpeg/refs/ffmpeg-armv7/lib/libavcodec.a(faanidct.o)
 .bss           0x0034b600        0x0 /home/chris/work/ffmpeg/refs/ffmpeg-armv7/lib/libavcodec.a(fft_float.o)
 .bss           0x0034b600        0x0 /home/chris/work/ffmpeg/refs/ffmpeg-armv7/lib/libavcodec.a(fmtconvert.o)
 .bss           0x0034b600        0x0 /home/chris/work/ffmpeg/refs/ffmpeg-armv7/lib/libavcodec.a(golomb.o)
 .bss           0x0034b600        0x0 /home/chris/work/ffmpeg/refs/ffmpeg-armv7/lib/libavcodec.a(h263.o)
 .bss           0x0034b600        0x0 /home/chris/work/ffmpeg/refs/ffmpeg-armv7/lib/libavcodec.a(imgconvert.o)
 .bss           0x0034b600        0x0 /home/chris/work/ffmpeg/refs/ffmpeg-armv7/lib/libavcodec.a(jrevdct.o)
 .bss           0x0034b600        0x0 /home/chris/work/ffmpeg/refs/ffmpeg-armv7/lib/libavcodec.a(kbdwin.o)
 .bss           0x0034b600        0x0 /home/chris/work/ffmpeg/refs/ffmpeg-armv7/lib/libavcodec.a(mdct_float.o)
 .bss           0x0034b600        0x0 /home/chris/work/ffmpeg/refs/ffmpeg-armv7/lib/libavcodec.a(mjpeg.o)
 .bss           0x0034b600        0x0 /home/chris/work/ffmpeg/refs/ffmpeg-armv7/lib/libavcodec.a(mpegaudio.o)
 .bss           0x0034b600        0x0 /home/chris/work/ffmpeg/refs/ffmpeg-armv7/lib/libavcodec.a(mpegaudiodsp_data.o)
 .bss           0x0034b600        0x0 /home/chris/work/ffmpeg/refs/ffmpeg-armv7/lib/libavcodec.a(rdft.o)
 .bss           0x0034b600        0x0 /home/chris/work/ffmpeg/refs/ffmpeg-armv7/lib/libavcodec.a(sbrdsp.o)
 .bss           0x0034b600        0x0 /home/chris/work/ffmpeg/refs/ffmpeg-armv7/lib/libavcodec.a(simple_idct.o)
 .bss           0x0034b600        0x0 /home/chris/work/ffmpeg/refs/ffmpeg-armv7/lib/libavcodec.a(sinewin.o)
 .bss           0x0034b600        0x0 /home/chris/work/ffmpeg/refs/ffmpeg-armv7/lib/libavcodec.a(aac_ac3_parser.o)
 .bss           0x0034b600     0xc970 /home/chris/work/ffmpeg/refs/ffmpeg-armv7/lib/libavcodec.a(aacps.o)
 .bss           0x00357f70        0x0 /home/chris/work/ffmpeg/refs/ffmpeg-armv7/lib/libavcodec.a(aacpsdsp.o)
 .bss           0x00357f70        0x0 /home/chris/work/ffmpeg/refs/ffmpeg-armv7/lib/libavcodec.a(ac3.o)
 .bss           0x00357f70        0x0 /home/chris/work/ffmpeg/refs/ffmpeg-armv7/lib/libavcodec.a(aacpsdsp_init_arm.o)
 .bss           0x00357f70        0x0 /home/chris/work/ffmpeg/refs/ffmpeg-armv7/lib/libavcodec.a(aacpsdsp_neon.o)
 .bss           0x00357f70        0x0 /home/chris/work/ffmpeg/refs/ffmpeg-armv7/lib/libavcodec.a(ac3dsp_arm.o)
 .bss           0x00357f70        0x0 /home/chris/work/ffmpeg/refs/ffmpeg-armv7/lib/libavcodec.a(ac3dsp_armv6.o)
 .bss           0x00357f70        0x8 /home/chris/work/ffmpeg/refs/ffmpeg-armv7/lib/libavcodec.a(dsputil_init_arm.o)
 .bss           0x00357f78        0x0 /home/chris/work/ffmpeg/refs/ffmpeg-armv7/lib/libavcodec.a(dsputil_init_armv5te.o)
 .bss           0x00357f78        0x0 /home/chris/work/ffmpeg/refs/ffmpeg-armv7/lib/libavcodec.a(dsputil_init_armv6.o)
 .bss           0x00357f78        0x0 /home/chris/work/ffmpeg/refs/ffmpeg-armv7/lib/libavcodec.a(dsputil_init_neon.o)
 .bss           0x00357f78        0x0 /home/chris/work/ffmpeg/refs/ffmpeg-armv7/lib/libavcodec.a(dsputil_neon.o)
 .bss           0x00357f78        0x0 /home/chris/work/ffmpeg/refs/ffmpeg-armv7/lib/libavcodec.a(fft_init_arm.o)
 .bss           0x00357f78        0x0 /home/chris/work/ffmpeg/refs/ffmpeg-armv7/lib/libavcodec.a(fft_neon.o)
 .bss           0x00357f78        0x0 /home/chris/work/ffmpeg/refs/ffmpeg-armv7/lib/libavcodec.a(fmtconvert_init_arm.o)
 .bss           0x00357f78        0x0 /home/chris/work/ffmpeg/refs/ffmpeg-armv7/lib/libavcodec.a(fmtconvert_neon.o)
 .bss           0x00357f78        0x0 /home/chris/work/ffmpeg/refs/ffmpeg-armv7/lib/libavcodec.a(fmtconvert_vfp.o)
 .bss           0x00357f78        0x0 /home/chris/work/ffmpeg/refs/ffmpeg-armv7/lib/libavcodec.a(int_neon.o)
 .bss           0x00357f78        0x0 /home/chris/work/ffmpeg/refs/ffmpeg-armv7/lib/libavcodec.a(jrevdct_arm.o)
 .bss           0x00357f78        0x0 /home/chris/work/ffmpeg/refs/ffmpeg-armv7/lib/libavcodec.a(mdct_neon.o)
 .bss           0x00357f78        0x0 /home/chris/work/ffmpeg/refs/ffmpeg-armv7/lib/libavcodec.a(mpegaudiodsp_fixed_armv6.o)
 .bss           0x00357f78        0x0 /home/chris/work/ffmpeg/refs/ffmpeg-armv7/lib/libavcodec.a(rdft_neon.o)
 .bss           0x00357f78        0x0 /home/chris/work/ffmpeg/refs/ffmpeg-armv7/lib/libavcodec.a(sbrdsp_init_arm.o)
 .bss           0x00357f78        0x0 /home/chris/work/ffmpeg/refs/ffmpeg-armv7/lib/libavcodec.a(sbrdsp_neon.o)
 .bss           0x00357f78        0x0 /home/chris/work/ffmpeg/refs/ffmpeg-armv7/lib/libavcodec.a(simple_idct_arm.o)
 .bss           0x00357f78        0x0 /home/chris/work/ffmpeg/refs/ffmpeg-armv7/lib/libavcodec.a(simple_idct_armv5te.o)
 .bss           0x00357f78        0x0 /home/chris/work/ffmpeg/refs/ffmpeg-armv7/lib/libavcodec.a(simple_idct_armv6.o)
 .bss           0x00357f78        0x0 /home/chris/work/ffmpeg/refs/ffmpeg-armv7/lib/libavcodec.a(simple_idct_neon.o)
 .bss           0x00357f78        0x0 /home/chris/work/ffmpeg/refs/ffmpeg-armv7/lib/libavcodec.a(videodsp_armv5te.o)
 .bss           0x00357f78        0x0 /home/chris/work/ffmpeg/refs/ffmpeg-armv7/lib/libavcodec.a(dsputil_arm.o)
 .bss           0x00357f78        0x0 /home/chris/work/ffmpeg/refs/ffmpeg-armv7/lib/libavcodec.a(dsputil_armv6.o)
 .bss           0x00357f78        0x4 /home/chris/work/ffmpeg/refs/ffmpeg-armv7/lib/libswscale.a(swscale.o)
 .bss           0x00357f7c        0x0 /home/chris/work/ffmpeg/refs/ffmpeg-armv7/lib/libswscale.a(utils.o)
 .bss           0x00357f7c        0x0 /home/chris/work/ffmpeg/refs/ffmpeg-armv7/lib/libswscale.a(yuv2rgb.o)
 .bss           0x00357f7c        0x0 /home/chris/work/ffmpeg/refs/ffmpeg-armv7/lib/libswscale.a(input.o)
 .bss           0x00357f7c        0x0 /home/chris/work/ffmpeg/refs/ffmpeg-armv7/lib/libswscale.a(options.o)
 .bss           0x00357f7c        0x0 /home/chris/work/ffmpeg/refs/ffmpeg-armv7/lib/libswscale.a(output.o)
 .bss           0x00357f7c        0x0 /home/chris/work/ffmpeg/refs/ffmpeg-armv7/lib/libswscale.a(rgb2rgb.o)
 .bss           0x00357f7c        0x0 /home/chris/work/ffmpeg/refs/ffmpeg-armv7/lib/libswscale.a(swscale_unscaled.o)
 .bss           0x00357f7c        0x0 /home/chris/work/ffmpeg/refs/ffmpeg-armv7/lib/libswresample.a(swresample.o)
 .bss           0x00357f7c        0x0 /home/chris/work/ffmpeg/refs/ffmpeg-armv7/lib/libswresample.a(audioconvert.o)
 .bss           0x00357f7c        0x0 /home/chris/work/ffmpeg/refs/ffmpeg-armv7/lib/libswresample.a(dither.o)
 .bss           0x00357f7c        0x0 /home/chris/work/ffmpeg/refs/ffmpeg-armv7/lib/libswresample.a(rematrix.o)
 .bss           0x00357f7c        0x0 /home/chris/work/ffmpeg/refs/ffmpeg-armv7/lib/libswresample.a(resample.o)
 .bss           0x00357f7c        0x0 /home/chris/work/ffmpeg/refs/ffmpeg-armv7/lib/libswresample.a(audio_convert_init.o)
 .bss           0x00357f7c        0x0 /home/chris/work/ffmpeg/refs/ffmpeg-armv7/lib/libswresample.a(audio_convert_neon.o)
 .bss           0x00357f7c        0x0 /home/chris/work/ffmpeg/refs/ffmpeg-armv7/lib/libavutil.a(avstring.o)
 .bss           0x00357f7c        0x0 /home/chris/work/ffmpeg/refs/ffmpeg-armv7/lib/libavutil.a(base64.o)
 .bss           0x00357f7c        0x0 /home/chris/work/ffmpeg/refs/ffmpeg-armv7/lib/libavutil.a(bprint.o)
 .bss           0x00357f7c        0x0 /home/chris/work/ffmpeg/refs/ffmpeg-armv7/lib/libavutil.a(channel_layout.o)
 .bss           0x00357f7c        0x8 /home/chris/work/ffmpeg/refs/ffmpeg-armv7/lib/libavutil.a(cpu.o)
 .bss           0x00357f84     0x1414 /home/chris/work/ffmpeg/refs/ffmpeg-armv7/lib/libavutil.a(crc.o)
 .bss           0x00359398        0x0 /home/chris/work/ffmpeg/refs/ffmpeg-armv7/lib/libavutil.a(dict.o)
 .bss           0x00359398        0x0 /home/chris/work/ffmpeg/refs/ffmpeg-armv7/lib/libavutil.a(error.o)
 .bss           0x00359398        0x0 /home/chris/work/ffmpeg/refs/ffmpeg-armv7/lib/libavutil.a(float_dsp.o)
 .bss           0x00359398        0x0 /home/chris/work/ffmpeg/refs/ffmpeg-armv7/lib/libavutil.a(imgutils.o)
 .bss           0x00359398        0x0 /home/chris/work/ffmpeg/refs/ffmpeg-armv7/lib/libavutil.a(lfg.o)
 .bss           0x00359398      0x40c /home/chris/work/ffmpeg/refs/ffmpeg-armv7/lib/libavutil.a(log.o)
 .bss           0x003597a4        0x0 /home/chris/work/ffmpeg/refs/ffmpeg-armv7/lib/libavutil.a(log2_tab.o)
 .bss           0x003597a4        0x0 /home/chris/work/ffmpeg/refs/ffmpeg-armv7/lib/libavutil.a(mathematics.o)
 .bss           0x003597a4        0x0 /home/chris/work/ffmpeg/refs/ffmpeg-armv7/lib/libavutil.a(md5.o)
 .bss           0x003597a4        0x0 /home/chris/work/ffmpeg/refs/ffmpeg-armv7/lib/libavutil.a(mem.o)
 .bss           0x003597a4        0x0 /home/chris/work/ffmpeg/refs/ffmpeg-armv7/lib/libavutil.a(opt.o)
 .bss           0x003597a4        0x0 /home/chris/work/ffmpeg/refs/ffmpeg-armv7/lib/libavutil.a(parseutils.o)
 .bss           0x003597a4        0x0 /home/chris/work/ffmpeg/refs/ffmpeg-armv7/lib/libavutil.a(pixdesc.o)
 .bss           0x003597a8      0x808 /home/chris/work/ffmpeg/refs/ffmpeg-armv7/lib/libavutil.a(random_seed.o)
 .bss           0x00359fb0        0x0 /home/chris/work/ffmpeg/refs/ffmpeg-armv7/lib/libavutil.a(rational.o)
 .bss           0x00359fb0        0x0 /home/chris/work/ffmpeg/refs/ffmpeg-armv7/lib/libavutil.a(samplefmt.o)
 .bss           0x00359fb0        0x0 /home/chris/work/ffmpeg/refs/ffmpeg-armv7/lib/libavutil.a(sha.o)
 .bss           0x00359fb0        0x0 /home/chris/work/ffmpeg/refs/ffmpeg-armv7/lib/libavutil.a(time.o)
 .bss           0x00359fb0        0x0 /home/chris/work/ffmpeg/refs/ffmpeg-armv7/lib/libavutil.a(timecode.o)
 .bss           0x00359fb0        0x0 /home/chris/work/ffmpeg/refs/ffmpeg-armv7/lib/libavutil.a(utils.o)
 .bss           0x00359fb0        0x0 /home/chris/work/ffmpeg/refs/ffmpeg-armv7/lib/libavutil.a(cpu.o)
 .bss           0x00359fb0        0x0 /home/chris/work/ffmpeg/refs/ffmpeg-armv7/lib/libavutil.a(float_dsp_init_arm.o)
 .bss           0x00359fb0        0x0 /home/chris/work/ffmpeg/refs/ffmpeg-armv7/lib/libavutil.a(float_dsp_init_neon.o)
 .bss           0x00359fb0        0x0 /home/chris/work/ffmpeg/refs/ffmpeg-armv7/lib/libavutil.a(float_dsp_init_vfp.o)
 .bss           0x00359fb0        0x0 /home/chris/work/ffmpeg/refs/ffmpeg-armv7/lib/libavutil.a(float_dsp_neon.o)
 .bss           0x00359fb0        0x0 /home/chris/work/ffmpeg/refs/ffmpeg-armv7/lib/libavutil.a(float_dsp_vfp.o)
 .bss           0x00359fb0        0x0 /home/chris/work/ffmpeg/refs/ffmpeg-armv7/lib/libavutil.a(eval.o)
 .bss           0x00359fb0        0x0 /home/chris/work/android/android-ndk-r8d/toolchains/arm-linux-androideabi-4.6/prebuilt/linux-x86/bin/../lib/gcc/arm-linux-androideabi/4.6/libgcc.a(_udivsi3.o)
 .bss           0x00359fb0        0x0 /home/chris/work/android/android-ndk-r8d/toolchains/arm-linux-androideabi-4.6/prebuilt/linux-x86/bin/../lib/gcc/arm-linux-androideabi/4.6/libgcc.a(_divsi3.o)
 .bss           0x00359fb0        0x0 /home/chris/work/android/android-ndk-r8d/toolchains/arm-linux-androideabi-4.6/prebuilt/linux-x86/bin/../lib/gcc/arm-linux-androideabi/4.6/libgcc.a(_lshrdi3.o)
 .bss           0x00359fb0        0x0 /home/chris/work/android/android-ndk-r8d/toolchains/arm-linux-androideabi-4.6/prebuilt/linux-x86/bin/../lib/gcc/arm-linux-androideabi/4.6/libgcc.a(_ashldi3.o)
 .bss           0x00359fb0        0x0 /home/chris/work/android/android-ndk-r8d/toolchains/arm-linux-androideabi-4.6/prebuilt/linux-x86/bin/../lib/gcc/arm-linux-androideabi/4.6/libgcc.a(_arm_addsubdf3.o)
 .bss           0x00359fb0        0x0 /home/chris/work/android/android-ndk-r8d/toolchains/arm-linux-androideabi-4.6/prebuilt/linux-x86/bin/../lib/gcc/arm-linux-androideabi/4.6/libgcc.a(_arm_muldivdf3.o)
 .bss           0x00359fb0        0x0 /home/chris/work/android/android-ndk-r8d/toolchains/arm-linux-androideabi-4.6/prebuilt/linux-x86/bin/../lib/gcc/arm-linux-androideabi/4.6/libgcc.a(_arm_cmpdf2.o)
 .bss           0x00359fb0        0x0 /home/chris/work/android/android-ndk-r8d/toolchains/arm-linux-androideabi-4.6/prebuilt/linux-x86/bin/../lib/gcc/arm-linux-androideabi/4.6/libgcc.a(_arm_fixunsdfsi.o)
 .bss           0x00359fb0        0x0 /home/chris/work/android/android-ndk-r8d/toolchains/arm-linux-androideabi-4.6/prebuilt/linux-x86/bin/../lib/gcc/arm-linux-androideabi/4.6/libgcc.a(_arm_addsubsf3.o)
 .bss           0x00359fb0        0x0 /home/chris/work/android/android-ndk-r8d/toolchains/arm-linux-androideabi-4.6/prebuilt/linux-x86/bin/../lib/gcc/arm-linux-androideabi/4.6/libgcc.a(_aeabi_ldivmod.o)
 .bss           0x00359fb0        0x0 /home/chris/work/android/android-ndk-r8d/toolchains/arm-linux-androideabi-4.6/prebuilt/linux-x86/bin/../lib/gcc/arm-linux-androideabi/4.6/libgcc.a(_aeabi_uldivmod.o)
 .bss           0x00359fb0        0x0 /home/chris/work/android/android-ndk-r8d/toolchains/arm-linux-androideabi-4.6/prebuilt/linux-x86/bin/../lib/gcc/arm-linux-androideabi/4.6/libgcc.a(_dvmd_lnx.o)
 .bss           0x00359fb0        0x0 /home/chris/work/android/android-ndk-r8d/toolchains/arm-linux-androideabi-4.6/prebuilt/linux-x86/bin/../lib/gcc/arm-linux-androideabi/4.6/libgcc.a(_fixdfdi.o)
 .bss           0x00359fb0        0x0 /home/chris/work/android/android-ndk-r8d/toolchains/arm-linux-androideabi-4.6/prebuilt/linux-x86/bin/../lib/gcc/arm-linux-androideabi/4.6/libgcc.a(_fixunsdfdi.o)
 .bss           0x00359fb0        0x0 /home/chris/work/android/android-ndk-r8d/toolchains/arm-linux-androideabi-4.6/prebuilt/linux-x86/bin/../lib/gcc/arm-linux-androideabi/4.6/libgcc.a(bpabi.o)
 .bss           0x00359fb0        0x0 /home/chris/work/android/android-ndk-r8d/toolchains/arm-linux-androideabi-4.6/prebuilt/linux-x86/bin/../lib/gcc/arm-linux-androideabi/4.6/libgcc.a(unwind-arm.o)
 .bss           0x00359fb0        0x0 /home/chris/work/android/android-ndk-r8d/toolchains/arm-linux-androideabi-4.6/prebuilt/linux-x86/bin/../lib/gcc/arm-linux-androideabi/4.6/libgcc.a(libunwind.o)
 .bss           0x00359fb0        0x0 /home/chris/work/android/android-ndk-r8d/toolchains/arm-linux-androideabi-4.6/prebuilt/linux-x86/bin/../lib/gcc/arm-linux-androideabi/4.6/libgcc.a(pr-support.o)
 .bss           0x00359fb0        0x0 /home/chris/work/android/android-ndk-r8d/toolchains/arm-linux-androideabi-4.6/prebuilt/linux-x86/bin/../lib/gcc/arm-linux-androideabi/4.6/libgcc.a(_divdi3.o)
 .bss           0x00359fb0        0x0 /home/chris/work/android/android-ndk-r8d/toolchains/arm-linux-androideabi-4.6/prebuilt/linux-x86/bin/../lib/gcc/arm-linux-androideabi/4.6/libgcc.a(_udivdi3.o)
 .bss           0x00359fb0        0x0 /home/chris/work/android/android-ndk-r8d/platforms/android-14/arch-arm/usr/lib/crtend_so.o
 ** common      0x00359fc0    0xdac60
